(dp0
Vaided
p1
(lp2
I0
aI6
asVlimited
p3
(lp4
I1
aI14
asVResidential
p5
(lp6
I2
aI3
asVchild
p7
(lp8
I3
aI4
asVbear
p9
(lp10
I4
aI4
asVContinental
p11
(lp12
I5
aI15
asVfacilities
p13
(lp14
I6
aI22
asVprotest
p15
(lp16
I7
aI8
asVcontroversial
p17
(lp18
I8
aI8
asVSchult
p19
(lp20
I9
aI4
asVconsists
p21
(lp22
I10
aI5
asVCommunist
p23
(lp24
I11
aI3
asVlooking
p25
(lp26
I12
aI16
asVeligible
p27
(lp28
I13
aI4
asVelectricity
p29
(lp30
I14
aI4
asVtremors
p31
(lp32
I15
aI3
asVadviser
p33
(lp34
I16
aI5
asVpensions
p35
(lp36
I17
aI3
asVGelco
p37
(lp38
I18
aI3
asVCasey
p39
(lp40
I19
aI4
asVFenner
p41
(lp42
I20
aI4
asVnominal
p43
(lp44
I21
aI5
asV340
p45
(lp46
I22
aI3
asVWestern
p47
(lp48
I23
aI26
asVSPA
p49
(lp50
I24
aI4
asVSecretary
p51
(lp52
I25
aI55
asV348
p53
(lp54
I26
aI3
asVworth
p55
(lp56
I27
aI39
asVCMOs
p57
(lp58
I28
aI5
asVsinking
p59
(lp60
I29
aI4
asVplants
p61
(lp62
I30
aI22
asV737
p63
(lp64
I31
aI3
asVrescue
p65
(lp66
I32
aI4
asVIranian
p67
(lp68
I33
aI9
asVpropane
p69
(lp70
I34
aI4
asVZiering
p71
(lp72
I35
aI6
asVIndustry
p73
(lp74
I36
aI11
asVregional
p75
(lp76
I37
aI8
asVsellers
p77
(lp78
I38
aI4
asVMelamed
p79
(lp80
I39
aI4
asVSalomon
p81
(lp82
I40
aI6
asVGE
p83
(lp84
I41
aI6
asVreplaces
p85
(lp86
I42
aI4
asVsuggests
p87
(lp88
I43
aI7
asVreforms
p89
(lp90
I44
aI7
asVcreditors
p91
(lp92
I45
aI16
asVaffect
p93
(lp94
I46
aI7
asVGM
p95
(lp96
I47
aI11
asVexporters
p97
(lp98
I48
aI9
asVbringing
p99
(lp100
I49
aI6
asV736
p101
(lp102
I50
aI3
asVMAS
p103
(lp104
I51
aI4
asVpresidency
p105
(lp106
I52
aI3
asVEconomists
p107
(lp108
I53
aI8
asVcrops
p109
(lp110
I54
aI5
asVDeputy
p111
(lp112
I55
aI9
asVcompanies
p113
(lp114
I56
aI71
asVsolution
p115
(lp116
I57
aI10
asVfrozen
p117
(lp118
I58
aI3
asVCrude
p119
(lp120
I59
aI3
asVMay
p121
(lp122
I60
aI41
asVdelegate
p123
(lp124
I61
aI3
asVSNP
p125
(lp126
I62
aI3
asV299
p127
(lp128
I63
aI3
asVenhance
p129
(lp130
I64
aI5
asVPaul
p131
(lp132
I65
aI16
asV295
p133
(lp134
I66
aI3
asVcommented
p135
(lp136
I67
aI4
asV291
p137
(lp138
I68
aI3
asVforce
p139
(lp140
I69
aI12
asVleaders
p141
(lp142
I70
aI5
asVestimates
p143
(lp144
I71
aI13
asVSome
p145
(lp146
I72
aI23
asVedge
p147
(lp148
I73
aI3
asVelections
p149
(lp150
I74
aI5
asVtires
p151
(lp152
I75
aI3
asVsurrounding
p153
(lp154
I76
aI3
asVsecond
p155
(lp156
I77
aI47
asVexchangeable
p157
(lp158
I78
aI6
asV275
p159
(lp160
I79
aI3
asVborrowings
p161
(lp162
I80
aI20
asVPetite
p163
(lp164
I81
aI4
asVDuesseldorf
p165
(lp166
I82
aI3
asVmachines
p167
(lp168
I83
aI6
asV583
p169
(lp170
I84
aI3
asVAvailable
p171
(lp172
I85
aI3
asVestablished
p173
(lp174
I86
aI6
asVerrors
p175
(lp176
I87
aI4
asVguilty
p177
(lp178
I88
aI3
asVpace
p179
(lp180
I89
aI8
asVselected
p181
(lp182
I90
aI9
asVcontributed
p183
(lp184
I91
aI9
asVprofitability
p185
(lp186
I92
aI3
asVsupplied
p187
(lp188
I93
aI3
asVMazda
p189
(lp190
I94
aI4
asVendorse
p191
(lp192
I95
aI3
asVnew
p193
(lp194
I96
aI252
asVnet
p195
(lp196
I97
aI99
asVincreasing
p197
(lp198
I98
aI11
asVofficially
p199
(lp200
I99
aI3
asVPresidential
p201
(lp202
I100
aI7
asVtold
p203
(lp204
I101
aI111
asVmutual
p205
(lp206
I102
aI5
asVIndonesia
p207
(lp208
I103
aI34
asVsimultaneously
p209
(lp210
I104
aI3
asVlicences
p211
(lp212
I105
aI5
asVmechanisms
p213
(lp214
I106
aI5
asVmen
p215
(lp216
I107
aI5
asVBudget
p217
(lp218
I108
aI4
asVYeutter
p219
(lp220
I109
aI6
asVreported
p221
(lp222
I110
aI61
asV108
p223
(lp224
I111
aI7
asV109
p225
(lp226
I112
aI10
asVactive
p227
(lp228
I113
aI9
asVaffiliated
p229
(lp230
I114
aI4
asV100
p231
(lp232
I115
aI71
asV101
p233
(lp234
I116
aI14
asV107
p235
(lp236
I117
aI6
asV104
p237
(lp238
I118
aI6
asV105
p239
(lp240
I119
aI4
asVborrowers
p241
(lp242
I120
aI6
asVbalance
p243
(lp244
I121
aI24
asVDebron
p245
(lp246
I122
aI3
asVforum
p247
(lp248
I123
aI4
asVclarify
p249
(lp250
I124
aI4
asVventures
p251
(lp252
I125
aI4
asVitems
p253
(lp254
I126
aI11
asVstudy
p255
(lp256
I127
aI21
asVManufacturers
p257
(lp258
I128
aI3
asVcompletely
p259
(lp260
I129
aI3
asVreports
p261
(lp262
I130
aI17
asVadopt
p263
(lp264
I131
aI4
asVcredit
p265
(lp266
I132
aI80
asVanalysts
p267
(lp268
I133
aI74
asVsmoke
p269
(lp270
I134
aI3
asVstressed
p271
(lp272
I135
aI11
asVmilitary
p273
(lp274
I136
aI9
asVpostponed
p275
(lp276
I137
aI5
asVsettled
p277
(lp278
I138
aI4
asVNegotiations
p279
(lp280
I139
aI3
asVissuers
p281
(lp282
I140
aI4
asVcriticism
p283
(lp284
I141
aI10
asVGroup
p285
(lp286
I142
aI54
asVprojection
p287
(lp288
I143
aI6
asVcampaign
p289
(lp290
I144
aI8
asVIndustrier
p291
(lp292
I145
aI3
asVLiebert
p293
(lp294
I146
aI3
asVexplained
p295
(lp296
I147
aI6
asVreplace
p297
(lp298
I148
aI11
asVbrought
p299
(lp300
I149
aI8
asVsuffered
p301
(lp302
I150
aI3
asVHealth
p303
(lp304
I151
aI4
asVsoybean
p305
(lp306
I152
aI17
asVCTC
p307
(lp308
I153
aI4
asVWales
p309
(lp310
I154
aI3
asVcounts
p311
(lp312
I155
aI5
asVtotal
p313
(lp314
I156
aI99
asVRopak
p315
(lp316
I157
aI3
asVBoesze
p317
(lp318
I158
aI11
asVreflected
p319
(lp320
I159
aI7
asVspoke
p321
(lp322
I160
aI3
asV345
p323
(lp324
I161
aI5
asVmarine
p325
(lp326
I162
aI3
asVKiichi
p327
(lp328
I163
aI3
asVJune
p329
(lp330
I164
aI43
asVnegative
p331
(lp332
I165
aI10
asVcents
p333
(lp334
I166
aI31
asVnoting
p335
(lp336
I167
aI3
asVCorning
p337
(lp338
I168
aI3
asVrecommend
p339
(lp340
I169
aI3
asVstrike
p341
(lp342
I170
aI9
asVIt
p343
(lp344
I171
aI252
asVtype
p345
(lp346
I172
aI7
asVvoted
p347
(lp348
I173
aI6
asVinformally
p349
(lp350
I174
aI4
asVcoupled
p351
(lp352
I175
aI4
asVMinistry
p353
(lp354
I176
aI24
asVsuccessful
p355
(lp356
I177
aI6
asVbrings
p357
(lp358
I178
aI7
asVmeeting
p359
(lp360
I179
aI85
asVhurt
p361
(lp362
I180
aI3
asV99
p363
(lp364
I181
aI15
asV98
p365
(lp366
I182
aI17
asVarms
p367
(lp368
I183
aI28
asVV
p369
(lp370
I184
aI9
asV91
p371
(lp372
I185
aI9
asV90
p373
(lp374
I186
aI34
asV93
p375
(lp376
I187
aI7
asV92
p377
(lp378
I188
aI15
asV95
p379
(lp380
I189
aI15
asV94
p381
(lp382
I190
aI10
asV97
p383
(lp384
I191
aI6
asV96
p385
(lp386
I192
aI10
asV1991
p387
(lp388
I193
aI10
asV1990
p389
(lp390
I194
aI21
asV1992
p391
(lp392
I195
aI22
asV1995
p393
(lp394
I196
aI3
asV1994
p395
(lp396
I197
aI4
asV1997
p397
(lp398
I198
aI8
asV1996
p399
(lp400
I199
aI4
asV1999
p401
(lp402
I200
aI4
asVImports
p403
(lp404
I201
aI4
asVpoints
p405
(lp406
I202
aI33
asVwork
p407
(lp408
I203
aI29
asVApr
p409
(lp410
I204
aI7
asVColombia
p411
(lp412
I205
aI5
asVrevenues
p413
(lp414
I206
aI33
asVexample
p415
(lp416
I207
aI4
asVdefer
p417
(lp418
I208
aI3
asV559
p419
(lp420
I209
aI3
asVunilateral
p421
(lp422
I210
aI4
asVreceivables
p423
(lp424
I211
aI7
asVLa
p425
(lp426
I212
aI9
asVCorporation
p427
(lp428
I213
aI5
asVcited
p429
(lp430
I214
aI7
asVlevied
p431
(lp432
I215
aI3
asV551
p433
(lp434
I216
aI3
asVLi
p435
(lp436
I217
aI8
asVinvolve
p437
(lp438
I218
aI4
asVcurrency
p439
(lp440
I219
aI32
asVHolding
p441
(lp442
I220
aI8
asVDigital
p443
(lp444
I221
aI4
asVpremium
p445
(lp446
I222
aI9
asVdrive
p447
(lp448
I223
aI5
asVfeasible
p449
(lp450
I224
aI3
asVattract
p451
(lp452
I225
aI3
asVtotaled
p453
(lp454
I226
aI7
asVrisk
p455
(lp456
I227
aI10
asVhog
p457
(lp458
I228
aI3
asVend
p459
(lp460
I229
aI77
asVLloyds
p461
(lp462
I230
aI3
asVcarriers
p463
(lp464
I231
aI3
asVprovide
p465
(lp466
I232
aI32
asVLL
p467
(lp468
I233
aI3
asVfeature
p469
(lp470
I234
aI8
asVmachine
p471
(lp472
I235
aI5
asVJeep
p473
(lp474
I236
aI6
asVHartford
p475
(lp476
I237
aI5
asVinterview
p477
(lp478
I238
aI11
asVplace
p479
(lp480
I239
aI21
asVordinary
p481
(lp482
I240
aI6
asVresignation
p483
(lp484
I241
aI3
asVForman
p485
(lp486
I242
aI5
asVoffshore
p487
(lp488
I243
aI3
asVA
p489
(lp490
I244
aI148
asVMcKinnon
p491
(lp492
I245
aI3
asVBates
p493
(lp494
I246
aI6
asVminority
p495
(lp496
I247
aI9
asVearlier
p497
(lp498
I248
aI86
asVconfirmed
p499
(lp500
I249
aI5
asVlump
p501
(lp502
I250
aI5
asVcustoms
p503
(lp504
I251
aI3
asVmodest
p505
(lp506
I252
aI4
asVlay
p507
(lp508
I253
aI3
asVpresident
p509
(lp510
I254
aI82
asVlaw
p511
(lp512
I255
aI13
asVtypes
p513
(lp514
I256
aI6
asVpurchase
p515
(lp516
I257
aI42
asVAll
p517
(lp518
I258
aI10
asVattempt
p519
(lp520
I259
aI9
asVeffective
p521
(lp522
I260
aI24
asVAli
p523
(lp524
I261
aI6
asVamid
p525
(lp526
I262
aI4
asVappreciate
p527
(lp528
I263
aI3
asVlost
p529
(lp530
I264
aI16
asV995
p531
(lp532
I265
aI4
asVdiscontinued
p533
(lp534
I266
aI8
asVLawson
p535
(lp536
I267
aI10
asVmaintain
p537
(lp538
I268
aI13
asVgreen
p539
(lp540
I269
aI3
asVsouth
p541
(lp542
I270
aI4
asVAnother
p543
(lp544
I271
aI9
asVenter
p545
(lp546
I272
aI9
asVHKEH
p547
(lp548
I273
aI3
asV516
p549
(lp550
I274
aI3
asVorder
p551
(lp552
I275
aI24
asVoperations
p553
(lp554
I276
aI53
asVEven
p555
(lp556
I277
aI3
asVZapata
p557
(lp558
I278
aI4
asVoffice
p559
(lp560
I279
aI22
asVwelcomed
p561
(lp562
I280
aI4
asVconsent
p563
(lp564
I281
aI3
asVHousing
p565
(lp566
I282
aI5
asVfall
p567
(lp568
I283
aI55
asVexpects
p569
(lp570
I284
aI31
asVinventory
p571
(lp572
I285
aI5
asVsoyoil
p573
(lp574
I286
aI3
asVFHLBB
p575
(lp576
I287
aI3
asVinnovative
p577
(lp578
I288
aI3
asVexchange
p579
(lp580
I289
aI96
asVMiyazawa
p581
(lp582
I290
aI3
asVdifference
p583
(lp584
I291
aI4
asVmatures
p585
(lp586
I292
aI7
asVpersonal
p587
(lp588
I293
aI18
asVRichter
p589
(lp590
I294
aI5
asVfix
p591
(lp592
I295
aI6
asVDilson
p593
(lp594
I296
aI11
asV84
p595
(lp596
I297
aI7
asVMonetary
p597
(lp598
I298
aI23
asVcrew
p599
(lp600
I299
aI4
asVbetter
p601
(lp602
I300
aI27
asVHarris
p603
(lp604
I301
aI4
asV400
p605
(lp606
I302
aI49
asVweeks
p607
(lp608
I303
aI32
asVeasier
p609
(lp610
I304
aI3
asVovercome
p611
(lp612
I305
aI5
asVdamages
p613
(lp614
I306
aI5
asVversus
p615
(lp616
I307
aI5
asVdonors
p617
(lp618
I308
aI3
asVcoffee
p619
(lp620
I309
aI36
asVaffected
p621
(lp622
I310
aI7
asVcombination
p623
(lp624
I311
aI3
asVOman
p625
(lp626
I312
aI4
asVsafe
p627
(lp628
I313
aI3
asVbirth
p629
(lp630
I314
aI4
asVThomas
p631
(lp632
I315
aI8
asVVolvo
p633
(lp634
I316
aI3
asVbreak
p635
(lp636
I317
aI6
asVband
p637
(lp638
I318
aI7
asVeffects
p639
(lp640
I319
aI4
asVsilver
p641
(lp642
I320
aI5
asVbank
p643
(lp644
I321
aI139
asVstructural
p645
(lp646
I322
aI3
asVrepresents
p647
(lp648
I323
aI8
asVLiberal
p649
(lp650
I324
aI3
asVreintroduction
p651
(lp652
I325
aI4
asVCairo
p653
(lp654
I326
aI5
asVclassified
p655
(lp656
I327
aI3
asVkilos
p657
(lp658
I328
aI3
asVTelecommunications
p659
(lp660
I329
aI4
asVFour
p661
(lp662
I330
aI10
asV378
p663
(lp664
I331
aI3
asVgood
p665
(lp666
I332
aI22
asVPlanning
p667
(lp668
I333
aI5
asVaffiliate
p669
(lp670
I334
aI8
asVvictory
p671
(lp672
I335
aI3
asVreasonable
p673
(lp674
I336
aI3
asV370
p675
(lp676
I337
aI3
asVwent
p677
(lp678
I338
aI5
asV375
p679
(lp680
I339
aI8
asVmeal
p681
(lp682
I340
aI8
asVTransport
p683
(lp684
I341
aI3
asVbond
p685
(lp686
I342
aI79
asVdevelopment
p687
(lp688
I343
aI32
asVlifted
p689
(lp690
I344
aI4
asVfinancial
p691
(lp692
I345
aI66
asVsuspended
p693
(lp694
I346
aI19
asVmeets
p695
(lp696
I347
aI3
asVcouncils
p697
(lp698
I348
aI4
asVseries
p699
(lp700
I349
aI20
asVaide
p701
(lp702
I350
aI9
asVSeixas
p703
(lp704
I351
aI6
asV390
p705
(lp706
I352
aI3
asVtrading
p707
(lp708
I353
aI79
asVcorporations
p709
(lp710
I354
aI4
asVsubstantially
p711
(lp712
I355
aI7
asVFmHA
p713
(lp714
I356
aI3
asVPires
p715
(lp716
I357
aI3
asVRevs
p717
(lp718
I358
aI29
asVdifferent
p719
(lp720
I359
aI7
asVnetwork
p721
(lp722
I360
aI17
asVChancellor
p723
(lp724
I361
aI7
asVcrucial
p725
(lp726
I362
aI4
asVsemiconductor
p727
(lp728
I363
aI4
asVencourage
p729
(lp730
I364
aI13
asVRhone
p731
(lp732
I365
aI3
asVrevolving
p733
(lp734
I366
aI3
asVWard
p735
(lp736
I367
aI4
asVProducers
p737
(lp738
I368
aI3
asVvenezuela
p739
(lp740
I369
aI5
asVAzuma
p741
(lp742
I370
aI3
asVGCC
p743
(lp744
I371
aI7
asVdisputed
p745
(lp746
I372
aI3
asVassured
p747
(lp748
I373
aI3
asVresume
p749
(lp750
I374
aI7
asVveto
p751
(lp752
I375
aI3
asVUniversity
p753
(lp754
I376
aI5
asVthreatened
p755
(lp756
I377
aI8
asVgiven
p757
(lp758
I378
aI17
asVfree
p759
(lp760
I379
aI23
asVstandard
p761
(lp762
I380
aI10
asVAntibioticos
p763
(lp764
I381
aI3
asVEurodollar
p765
(lp766
I382
aI5
asVallocation
p767
(lp768
I383
aI3
asV240
p769
(lp770
I384
aI7
asVCircuit
p771
(lp772
I385
aI4
asVboosting
p773
(lp774
I386
aI3
asVSES
p775
(lp776
I387
aI3
asVestimate
p777
(lp778
I388
aI19
asVwanted
p779
(lp780
I389
aI8
asVFrankfurt
p781
(lp782
I390
aI3
asVwidespread
p783
(lp784
I391
aI6
asVSuharto
p785
(lp786
I392
aI3
asVEsselte
p787
(lp788
I393
aI5
asVCambridge
p789
(lp790
I394
aI3
asVNigel
p791
(lp792
I395
aI6
asVcreated
p793
(lp794
I396
aI7
asVSeptember
p795
(lp796
I397
aI60
asVstarts
p797
(lp798
I398
aI3
asVNational
p799
(lp800
I399
aI68
asVmessages
p801
(lp802
I400
aI3
asVdays
p803
(lp804
I401
aI49
asVlocal
p805
(lp806
I402
aI40
asVministries
p807
(lp808
I403
aI3
asVshipped
p809
(lp810
I404
aI5
asV000
p811
(lp812
I405
aI437
asVfought
p813
(lp814
I406
aI3
asVkingdom
p815
(lp816
I407
aI3
asVChase
p817
(lp818
I408
aI5
asVGerald
p819
(lp820
I409
aI4
asVMining
p821
(lp822
I410
aI9
asVrand
p823
(lp824
I411
aI3
asVindustrial
p825
(lp826
I412
aI20
asVNacco
p827
(lp828
I413
aI4
asVeconomists
p829
(lp830
I414
aI37
asVgrade
p831
(lp832
I415
aI7
asVDub
p833
(lp834
I416
aI5
asVprimary
p835
(lp836
I417
aI17
asVhearing
p837
(lp838
I418
aI4
asVrestrict
p839
(lp840
I419
aI6
asVspinning
p841
(lp842
I420
aI3
asVunspecified
p843
(lp844
I421
aI3
asVAutomotive
p845
(lp846
I422
aI6
asV175
p847
(lp848
I423
aI6
asV174
p849
(lp850
I424
aI4
asVelectronic
p851
(lp852
I425
aI16
asV172
p853
(lp854
I426
aI3
asVRohr
p855
(lp856
I427
aI3
asVmercury
p857
(lp858
I428
aI4
asVrated
p859
(lp860
I429
aI9
asVservice
p861
(lp862
I430
aI43
asVapproximately
p863
(lp864
I431
aI4
asVneeded
p865
(lp866
I432
aI27
asVrates
p867
(lp868
I433
aI65
asVFoothill
p869
(lp870
I434
aI3
asVPress
p871
(lp872
I435
aI4
asVDividend
p873
(lp874
I436
aI3
asVLNG
p875
(lp876
I437
aI9
asVProducing
p877
(lp878
I438
aI4
asVranging
p879
(lp880
I439
aI10
asVdamaging
p881
(lp882
I440
aI3
asVAlexander
p883
(lp884
I441
aI3
asVSprinkel
p885
(lp886
I442
aI6
asVceiling
p887
(lp888
I443
aI16
asVB
p889
(lp890
I444
aI13
asVcollapse
p891
(lp892
I445
aI5
asVQuoting
p893
(lp894
I446
aI3
asVserve
p895
(lp896
I447
aI14
asVtook
p897
(lp898
I448
aI17
asVrejected
p899
(lp900
I449
aI17
asVnearing
p901
(lp902
I450
aI3
asVDenver
p903
(lp904
I451
aI3
asVsomewhat
p905
(lp906
I452
aI4
asVIf
p907
(lp908
I453
aI25
asVshortly
p909
(lp910
I454
aI5
asVPACCAR
p911
(lp912
I455
aI5
asVwhite
p913
(lp914
I456
aI6
asVpositively
p915
(lp916
I457
aI4
asVWyss
p917
(lp918
I458
aI4
asVguild
p919
(lp920
I459
aI6
asVtarget
p921
(lp922
I460
aI22
asVshowed
p923
(lp924
I461
aI22
asVprograms
p925
(lp926
I462
aI7
asVlikely
p927
(lp928
I463
aI63
asVimputation
p929
(lp930
I464
aI4
asVnations
p931
(lp932
I465
aI19
asVproject
p933
(lp934
I466
aI15
asVmatter
p935
(lp936
I467
aI7
asVstreet
p937
(lp938
I468
aI3
asVBanner
p939
(lp940
I469
aI8
asVnervous
p941
(lp942
I470
aI3
asVSea
p943
(lp944
I471
aI3
asVMiller
p945
(lp946
I472
aI7
asVSen
p947
(lp948
I473
aI8
asVbidder
p949
(lp950
I474
aI4
asVminus
p951
(lp952
I475
aI6
asVacquisition
p953
(lp954
I476
aI37
asVbridge
p955
(lp956
I477
aI7
asVKaunda
p957
(lp958
I478
aI3
asVwillingness
p959
(lp960
I479
aI3
asVChicago
p961
(lp962
I480
aI27
asVran
p963
(lp964
I481
aI3
asVmind
p965
(lp966
I482
aI4
asVMine
p967
(lp968
I483
aI4
asVraw
p969
(lp970
I484
aI8
asVseen
p971
(lp972
I485
aI14
asVseek
p973
(lp974
I486
aI14
asVseminar
p975
(lp976
I487
aI3
asVinefficient
p977
(lp978
I488
aI3
asVforced
p979
(lp980
I489
aI8
asVstrength
p981
(lp982
I490
aI10
asVChristian
p983
(lp984
I491
aI4
asVbroadly
p985
(lp986
I492
aI4
asV1965
p987
(lp988
I493
aI3
asVresponsible
p989
(lp990
I494
aI11
asVsound
p991
(lp992
I495
aI4
asVrecommended
p993
(lp994
I496
aI7
asVmaterials
p995
(lp996
I497
aI11
asVMinister
p997
(lp998
I498
aI58
asVforces
p999
(lp1000
I499
aI7
asVlayoffs
p1001
(lp1002
I500
aI4
asVQantas
p1003
(lp1004
I501
aI10
asVBank
p1005
(lp1006
I502
aI172
asVshipments
p1007
(lp1008
I503
aI11
asVacquire
p1009
(lp1010
I504
aI29
asVAlgerian
p1011
(lp1012
I505
aI5
asVtransactions
p1013
(lp1014
I506
aI21
asVsugarcane
p1015
(lp1016
I507
aI3
asVextending
p1017
(lp1018
I508
aI4
asVGmbH
p1019
(lp1020
I509
aI3
asVinvolving
p1021
(lp1022
I510
aI8
asVletter
p1023
(lp1024
I511
aI26
asVorganization
p1025
(lp1026
I512
aI8
asVphase
p1027
(lp1028
I513
aI7
asVimported
p1029
(lp1030
I514
aI9
asVdrought
p1031
(lp1032
I515
aI5
asVBond
p1033
(lp1034
I516
aI8
asVdon
p1035
(lp1036
I517
aI18
asVWang
p1037
(lp1038
I518
aI4
asVLewis
p1039
(lp1040
I519
aI4
asVcalculated
p1041
(lp1042
I520
aI7
asVm
p1043
(lp1044
I521
aI7
asVspend
p1045
(lp1046
I522
aI5
asVaccounted
p1047
(lp1048
I523
aI8
asVprinciple
p1049
(lp1050
I524
aI12
asVman
p1051
(lp1052
I525
aI3
asVvoting
p1053
(lp1054
I526
aI12
asVconsumer
p1055
(lp1056
I527
aI17
asVIts
p1057
(lp1058
I528
aI8
asVcame
p1059
(lp1060
I529
aI14
asVreserve
p1061
(lp1062
I530
aI23
asVsaying
p1063
(lp1064
I531
aI33
asVBasra
p1065
(lp1066
I532
aI6
asVcontacted
p1067
(lp1068
I533
aI4
asVUnion
p1069
(lp1070
I534
aI39
asVAbdul
p1071
(lp1072
I535
aI5
asVmeetings
p1073
(lp1074
I536
aI6
asVAgency
p1075
(lp1076
I537
aI18
asVending
p1077
(lp1078
I538
aI20
asVattempts
p1079
(lp1080
I539
aI5
asVgauge
p1081
(lp1082
I540
aI4
asVreductions
p1083
(lp1084
I541
aI4
asVparticipate
p1085
(lp1086
I542
aI3
asVearth
p1087
(lp1088
I543
aI4
asVthirds
p1089
(lp1090
I544
aI8
asVrescheduling
p1091
(lp1092
I545
aI20
asVCongressional
p1093
(lp1094
I546
aI3
asVEuropean
p1095
(lp1096
I547
aI55
asVSunflowerseed
p1097
(lp1098
I548
aI3
asVnortheast
p1099
(lp1100
I549
aI4
asVMercantile
p1101
(lp1102
I550
aI5
asVjust
p1103
(lp1104
I551
aI25
asVUnocal
p1105
(lp1106
I552
aI4
asVimplementation
p1107
(lp1108
I553
aI3
asVSept
p1109
(lp1110
I554
aI10
asVexplain
p1111
(lp1112
I555
aI7
asVdebts
p1113
(lp1114
I556
aI3
asVsugar
p1115
(lp1116
I557
aI16
asVlube
p1117
(lp1118
I558
aI3
asV544
p1119
(lp1120
I559
aI3
asVannounce
p1121
(lp1122
I560
aI15
asVrice
p1123
(lp1124
I561
aI12
asVexports
p1125
(lp1126
I562
aI87
asVNetherlands
p1127
(lp1128
I563
aI4
asVLevel
p1129
(lp1130
I564
aI5
asVNevertheless
p1131
(lp1132
I565
aI5
asVconduct
p1133
(lp1134
I566
aI7
asVstop
p1135
(lp1136
I567
aI13
asV13
p1137
(lp1138
I568
aI65
asVpreferred
p1139
(lp1140
I569
aI28
asVHeck
p1141
(lp1142
I570
aI3
asVcompetitive
p1143
(lp1144
I571
aI15
asVreversal
p1145
(lp1146
I572
aI3
asVsupplies
p1147
(lp1148
I573
aI10
asVreport
p1149
(lp1150
I574
aI116
asVX
p1151
(lp1152
I575
aI6
asVquarters
p1153
(lp1154
I576
aI9
asVSoviet
p1155
(lp1156
I577
aI13
asVBahia
p1157
(lp1158
I578
aI4
asVJohnstone
p1159
(lp1160
I579
aI3
asVruns
p1161
(lp1162
I580
aI3
asVcovering
p1163
(lp1164
I581
aI13
asVreintroducing
p1165
(lp1166
I582
aI3
asVoats
p1167
(lp1168
I583
aI6
asVWashington
p1169
(lp1170
I584
aI40
asVirregularities
p1171
(lp1172
I585
aI3
asV19
p1173
(lp1174
I586
aI48
asVbad
p1175
(lp1176
I587
aI6
asVdiscs
p1177
(lp1178
I588
aI3
asVAirways
p1179
(lp1180
I589
aI10
asV18
p1181
(lp1182
I590
aI40
asVrelease
p1183
(lp1184
I591
aI7
asVautomatic
p1185
(lp1186
I592
aI6
asVsecretary
p1187
(lp1188
I593
aI4
asVgallon
p1189
(lp1190
I594
aI3
asVPartners
p1191
(lp1192
I595
aI4
asVleasing
p1193
(lp1194
I596
aI3
asVfair
p1195
(lp1196
I597
aI3
asVjob
p1197
(lp1198
I598
aI13
asVtesting
p1199
(lp1200
I599
aI4
asV1960s
p1201
(lp1202
I600
aI3
asVTextile
p1203
(lp1204
I601
aI3
asVdepends
p1205
(lp1206
I602
aI4
asVdecided
p1207
(lp1208
I603
aI18
asVprojections
p1209
(lp1210
I604
aI6
asVSydney
p1211
(lp1212
I605
aI5
asVcattle
p1213
(lp1214
I606
aI3
asVdiscussions
p1215
(lp1216
I607
aI28
asVresigned
p1217
(lp1218
I608
aI12
asVAMAX
p1219
(lp1220
I609
aI3
asVbest
p1221
(lp1222
I610
aI9
asVtechniques
p1223
(lp1224
I611
aI4
asV02
p1225
(lp1226
I612
aI3
asV03
p1227
(lp1228
I613
aI13
asVIndonesian
p1229
(lp1230
I614
aI6
asV01
p1231
(lp1232
I615
aI3
asV06
p1233
(lp1234
I616
aI10
asVKorea
p1235
(lp1236
I617
aI11
asV04
p1237
(lp1238
I618
aI9
asV05
p1239
(lp1240
I619
aI16
asVAuto
p1241
(lp1242
I620
aI4
asVaway
p1243
(lp1244
I621
aI10
asVfreeze
p1245
(lp1246
I622
aI13
asVkind
p1247
(lp1248
I623
aI9
asVOper
p1249
(lp1250
I624
aI38
asVunable
p1251
(lp1252
I625
aI9
asVAzzam
p1253
(lp1254
I626
aI7
asVcooperation
p1255
(lp1256
I627
aI9
asVmths
p1257
(lp1258
I628
aI9
asVPrices
p1259
(lp1260
I629
aI9
asVMizrahi
p1261
(lp1262
I630
aI3
asVTechnologies
p1263
(lp1264
I631
aI8
asVprevious
p1265
(lp1266
I632
aI61
asVapproach
p1267
(lp1268
I633
aI6
asV360
p1269
(lp1270
I634
aI3
asVconfirmation
p1271
(lp1272
I635
aI11
asVwage
p1273
(lp1274
I636
aI19
asVaccord
p1275
(lp1276
I637
aI26
asVterms
p1277
(lp1278
I638
aI43
asVnationwide
p1279
(lp1280
I639
aI5
asVnature
p1281
(lp1282
I640
aI5
asVcomponent
p1283
(lp1284
I641
aI5
asVweak
p1285
(lp1286
I642
aI14
asVmetal
p1287
(lp1288
I643
aI3
asV380
p1289
(lp1290
I644
aI4
asVcut
p1291
(lp1292
I645
aI51
asV384
p1293
(lp1294
I646
aI3
asVextent
p1295
(lp1296
I647
aI7
asVnews
p1297
(lp1298
I648
aI27
asVconvertible
p1299
(lp1300
I649
aI24
asVdebt
p1301
(lp1302
I650
aI188
asVholds
p1303
(lp1304
I651
aI13
asVOtherwise
p1305
(lp1306
I652
aI3
asVsuggested
p1307
(lp1308
I653
aI7
asVreceived
p1309
(lp1310
I654
aI36
asVprotect
p1311
(lp1312
I655
aI18
asVmet
p1313
(lp1314
I656
aI15
asVresistant
p1315
(lp1316
I657
aI4
asVcountry
p1317
(lp1318
I658
aI62
asVuncertainty
p1319
(lp1320
I659
aI9
asVheating
p1321
(lp1322
I660
aI3
asVdemanded
p1323
(lp1324
I661
aI8
asVThomson
p1325
(lp1326
I662
aI8
asVplayers
p1327
(lp1328
I663
aI6
asVComputer
p1329
(lp1330
I664
aI21
asVplanned
p1331
(lp1332
I665
aI28
asVreceives
p1333
(lp1334
I666
aI4
asVfaces
p1335
(lp1336
I667
aI4
asVrequests
p1337
(lp1338
I668
aI9
asVargue
p1339
(lp1340
I669
aI3
asVasked
p1341
(lp1342
I670
aI32
asVnegotiation
p1343
(lp1344
I671
aI6
asVsuggest
p1345
(lp1346
I672
aI3
asVappeared
p1347
(lp1348
I673
aI13
asVmegabyte
p1349
(lp1350
I674
aI4
asVReuter
p1351
(lp1352
I675
aI510
asVPetroleum
p1353
(lp1354
I676
aI13
asVseizure
p1355
(lp1356
I677
aI3
asVLehman
p1357
(lp1358
I678
aI7
asV102
p1359
(lp1360
I679
aI8
asVtons
p1361
(lp1362
I680
aI46
asVinitiative
p1363
(lp1364
I681
aI7
asVTelegraph
p1365
(lp1366
I682
aI6
asVIreland
p1367
(lp1368
I683
aI4
asVOhio
p1369
(lp1370
I684
aI13
asVwider
p1371
(lp1372
I685
aI5
asVCourt
p1373
(lp1374
I686
aI9
asV250
p1375
(lp1376
I687
aI22
asVtrust
p1377
(lp1378
I688
aI22
asVtelecommunications
p1379
(lp1380
I689
aI5
asVconference
p1381
(lp1382
I690
aI24
asVTVX
p1383
(lp1384
I691
aI9
asVengines
p1385
(lp1386
I692
aI15
asVbasis
p1387
(lp1388
I693
aI52
asVunion
p1389
(lp1390
I694
aI27
asVOctober
p1391
(lp1392
I695
aI20
asVremained
p1393
(lp1394
I696
aI18
asVcriticised
p1395
(lp1396
I697
aI4
asVquickly
p1397
(lp1398
I698
aI16
asVsubsidy
p1399
(lp1400
I699
aI6
asVcommission
p1401
(lp1402
I700
aI8
asVtrigger
p1403
(lp1404
I701
aI4
asVbasic
p1405
(lp1406
I702
aI6
asVexpected
p1407
(lp1408
I703
aI144
asVflexible
p1409
(lp1410
I704
aI5
asVentered
p1411
(lp1412
I705
aI10
asVborrower
p1413
(lp1414
I706
aI3
asVCiticorp
p1415
(lp1416
I707
aI4
asVduties
p1417
(lp1418
I708
aI6
asVQuotation
p1419
(lp1420
I709
aI3
asVobtained
p1421
(lp1422
I710
aI7
asVlife
p1423
(lp1424
I711
aI18
asVNimocks
p1425
(lp1426
I712
aI3
asVfamilies
p1427
(lp1428
I713
aI5
asVTokyo
p1429
(lp1430
I714
aI25
asVPennsylvania
p1431
(lp1432
I715
aI5
asV39
p1433
(lp1434
I716
aI13
asVPoland
p1435
(lp1436
I717
aI7
asVazpurua
p1437
(lp1438
I718
aI3
asVlocations
p1439
(lp1440
I719
aI7
asV111
p1441
(lp1442
I720
aI4
asVlift
p1443
(lp1444
I721
aI3
asVStuart
p1445
(lp1446
I722
aI7
asV164
p1447
(lp1448
I723
aI6
asV165
p1449
(lp1450
I724
aI4
asVworked
p1451
(lp1452
I725
aI6
asVspin
p1453
(lp1454
I726
aI5
asVdiverted
p1455
(lp1456
I727
aI3
asVapplied
p1457
(lp1458
I728
aI4
asVTreasuries
p1459
(lp1460
I729
aI6
asVsave
p1461
(lp1462
I730
aI4
asVCentrale
p1463
(lp1464
I731
aI8
asVpublicly
p1465
(lp1466
I732
aI3
asV38
p1467
(lp1468
I733
aI18
asVprofitably
p1469
(lp1470
I734
aI3
asVDollar
p1471
(lp1472
I735
aI13
asVeconomies
p1473
(lp1474
I736
aI4
asVair
p1475
(lp1476
I737
aI10
asVaim
p1477
(lp1478
I738
aI4
asVauction
p1479
(lp1480
I739
aI6
asVnear
p1481
(lp1482
I740
aI16
asVmoratorium
p1483
(lp1484
I741
aI8
asVSalina
p1485
(lp1486
I742
aI5
asVproceed
p1487
(lp1488
I743
aI5
asVaid
p1489
(lp1490
I744
aI14
asVproperty
p1491
(lp1492
I745
aI18
asVelaborate
p1493
(lp1494
I746
aI6
asVlaunched
p1495
(lp1496
I747
aI11
asVLOC
p1497
(lp1498
I748
aI4
asVseven
p1499
(lp1500
I749
aI42
asVclimbed
p1501
(lp1502
I750
aI4
asVpriced
p1503
(lp1504
I751
aI40
asVplayed
p1505
(lp1506
I752
aI4
asVWallenberg
p1507
(lp1508
I753
aI3
asVspeech
p1509
(lp1510
I754
aI6
asVcustomers
p1511
(lp1512
I755
aI22
asVSugarman
p1513
(lp1514
I756
aI7
asVexpenses
p1515
(lp1516
I757
aI4
asVbarrels
p1517
(lp1518
I758
aI19
asVplayer
p1519
(lp1520
I759
aI5
asVGAO
p1521
(lp1522
I760
aI8
asVexperts
p1523
(lp1524
I761
aI6
asVDole
p1525
(lp1526
I762
aI3
asVCapital
p1527
(lp1528
I763
aI20
asVAntonson
p1529
(lp1530
I764
aI3
asVvendor
p1531
(lp1532
I765
aI3
asVconfident
p1533
(lp1534
I766
aI7
asVgrown
p1535
(lp1536
I767
aI4
asVdamaged
p1537
(lp1538
I768
aI5
asVBoulangerie
p1539
(lp1540
I769
aI4
asVmember
p1541
(lp1542
I770
aI24
asVpatent
p1543
(lp1544
I771
aI4
asVoccupied
p1545
(lp1546
I772
aI3
asVmake
p1547
(lp1548
I773
aI60
asVcumulative
p1549
(lp1550
I774
aI6
asVlinked
p1551
(lp1552
I775
aI3
asVPratt
p1553
(lp1554
I776
aI8
asVVolcker
p1555
(lp1556
I777
aI41
asVGraaf
p1557
(lp1558
I778
aI3
asVsplit
p1559
(lp1560
I779
aI42
asVbig
p1561
(lp1562
I780
aI6
asVvegetable
p1563
(lp1564
I781
aI7
asVPresident
p1565
(lp1566
I782
aI42
asVrupiah
p1567
(lp1568
I783
aI3
asVshowing
p1569
(lp1570
I784
aI6
asVHisham
p1571
(lp1572
I785
aI3
asVfairly
p1573
(lp1574
I786
aI5
asVsatellite
p1575
(lp1576
I787
aI9
asVabolition
p1577
(lp1578
I788
aI5
asVnil
p1579
(lp1580
I789
aI12
asVInstitute
p1581
(lp1582
I790
aI9
asVpermit
p1583
(lp1584
I791
aI8
asVworkforce
p1585
(lp1586
I792
aI5
asVcounterparts
p1587
(lp1588
I793
aI4
asVhand
p1589
(lp1590
I794
aI8
asVAngeles
p1591
(lp1592
I795
aI12
asVhectares
p1593
(lp1594
I796
aI4
asVPeking
p1595
(lp1596
I797
aI12
asVOil
p1597
(lp1598
I798
aI25
asVproducers
p1599
(lp1600
I799
aI21
asVscale
p1601
(lp1602
I800
aI10
asVBentsen
p1603
(lp1604
I801
aI3
asVHome
p1605
(lp1606
I802
aI14
asVY
p1607
(lp1608
I803
aI8
asVguilders
p1609
(lp1610
I804
aI7
asVopportunity
p1611
(lp1612
I805
aI6
asVblamed
p1613
(lp1614
I806
aI4
asVNYSE
p1615
(lp1616
I807
aI3
asVintention
p1617
(lp1618
I808
aI6
asVbutter
p1619
(lp1620
I809
aI11
asVGates
p1621
(lp1622
I810
aI20
asVsuitable
p1623
(lp1624
I811
aI4
asVkept
p1625
(lp1626
I812
aI6
asV1978
p1627
(lp1628
I813
aI6
asV1976
p1629
(lp1630
I814
aI4
asVfailing
p1631
(lp1632
I815
aI6
asV1972
p1633
(lp1634
I816
aI4
asVdeferred
p1635
(lp1636
I817
aI3
asVsavings
p1637
(lp1638
I818
aI11
asVcontact
p1639
(lp1640
I819
aI10
asVGoldman
p1641
(lp1642
I820
aI5
asVSpaventa
p1643
(lp1644
I821
aI4
asVclaims
p1645
(lp1646
I822
aI5
asVPortland
p1647
(lp1648
I823
aI5
asV800
p1649
(lp1650
I824
aI27
asVcorporate
p1651
(lp1652
I825
aI26
asVinvestments
p1653
(lp1654
I826
aI13
asVleft
p1655
(lp1656
I827
aI17
asVpassed
p1657
(lp1658
I828
aI3
asVAfter
p1659
(lp1660
I829
aI14
asVfacto
p1661
(lp1662
I830
aI3
asVRussell
p1663
(lp1664
I831
aI4
asVquoted
p1665
(lp1666
I832
aI29
asVyen
p1667
(lp1668
I833
aI60
asVdistribute
p1669
(lp1670
I834
aI4
asVDelegates
p1671
(lp1672
I835
aI5
asVassigned
p1673
(lp1674
I836
aI5
asVquotes
p1675
(lp1676
I837
aI4
asVArabian
p1677
(lp1678
I838
aI3
asVDay
p1679
(lp1680
I839
aI6
asV32
p1681
(lp1682
I840
aI32
asVsecure
p1683
(lp1684
I841
aI3
asVadding
p1685
(lp1686
I842
aI12
asVbuyers
p1687
(lp1688
I843
aI9
asVfamily
p1689
(lp1690
I844
aI26
asVgot
p1691
(lp1692
I845
aI4
asVdevaluation
p1693
(lp1694
I846
aI6
asVease
p1695
(lp1696
I847
aI8
asVGas
p1697
(lp1698
I848
aI18
asVideal
p1699
(lp1700
I849
aI3
asVmainly
p1701
(lp1702
I850
aI16
asVBaghdad
p1703
(lp1704
I851
aI4
asVspread
p1705
(lp1706
I852
aI5
asVboard
p1707
(lp1708
I853
aI63
asVeasy
p1709
(lp1710
I854
aI4
asVKuwait
p1711
(lp1712
I855
aI22
asVNews
p1713
(lp1714
I856
aI12
asVeast
p1715
(lp1716
I857
aI4
asVgave
p1717
(lp1718
I858
aI20
asVEdouard
p1719
(lp1720
I859
aI4
asV119
p1721
(lp1722
I860
aI5
asVD
p1723
(lp1724
I861
aI10
asVadvances
p1725
(lp1726
I862
aI3
asVregard
p1727
(lp1728
I863
aI3
asVChrysler
p1729
(lp1730
I864
aI10
asVpossible
p1731
(lp1732
I865
aI23
asVrocket
p1733
(lp1734
I866
aI6
asVJohn
p1735
(lp1736
I867
aI20
asVbarge
p1737
(lp1738
I868
aI3
asVExco
p1739
(lp1740
I869
aI6
asVjudge
p1741
(lp1742
I870
aI5
asVOverseas
p1743
(lp1744
I871
aI6
asVhighly
p1745
(lp1746
I872
aI6
asVwillful
p1747
(lp1748
I873
aI3
asVadvanced
p1749
(lp1750
I874
aI7
asV58
p1751
(lp1752
I875
aI12
asVutilisation
p1753
(lp1754
I876
aI3
asVinstead
p1755
(lp1756
I877
aI16
asVbpd
p1757
(lp1758
I878
aI24
asV55
p1759
(lp1760
I879
aI18
asV54
p1761
(lp1762
I880
aI21
asV57
p1763
(lp1764
I881
aI16
asVperforming
p1765
(lp1766
I882
aI3
asV51
p1767
(lp1768
I883
aI26
asV50
p1769
(lp1770
I884
aI115
asV53
p1771
(lp1772
I885
aI15
asV52
p1773
(lp1774
I886
aI23
asVsecurities
p1775
(lp1776
I887
aI82
asVfestivities
p1777
(lp1778
I888
aI3
asVTrading
p1779
(lp1780
I889
aI12
asVofficer
p1781
(lp1782
I890
aI21
asVnight
p1783
(lp1784
I891
aI11
asVsecurity
p1785
(lp1786
I892
aI5
asVBridgend
p1787
(lp1788
I893
aI3
asVSwedish
p1789
(lp1790
I894
aI9
asVattorney
p1791
(lp1792
I895
aI3
asVright
p1793
(lp1794
I896
aI25
asVold
p1795
(lp1796
I897
aI14
asVBangladesh
p1797
(lp1798
I898
aI6
asVdeal
p1799
(lp1800
I899
aI47
asVpeople
p1801
(lp1802
I900
aI20
asVStores
p1803
(lp1804
I901
aI3
asVMedusa
p1805
(lp1806
I902
aI6
asVsuccessfully
p1807
(lp1808
I903
aI4
asVHughes
p1809
(lp1810
I904
aI4
asVCommission
p1811
(lp1812
I905
aI65
asVNippon
p1813
(lp1814
I906
aI13
asVelection
p1815
(lp1816
I907
aI9
asVBanque
p1817
(lp1818
I908
aI8
asVseized
p1819
(lp1820
I909
aI4
asVspecific
p1821
(lp1822
I910
aI14
asVLife
p1823
(lp1824
I911
aI13
asVproceeding
p1825
(lp1826
I912
aI3
asVPermian
p1827
(lp1828
I913
aI4
asVCuba
p1829
(lp1830
I914
aI6
asVcomments
p1831
(lp1832
I915
aI5
asVtotals
p1833
(lp1834
I916
aI7
asVHk
p1835
(lp1836
I917
aI13
asVasking
p1837
(lp1838
I918
aI3
asVenterprises
p1839
(lp1840
I919
aI7
asVunit
p1841
(lp1842
I920
aI88
asVdenied
p1843
(lp1844
I921
aI11
asVChris
p1845
(lp1846
I922
aI3
asVindication
p1847
(lp1848
I923
aI3
asV425
p1849
(lp1850
I924
aI10
asVparticipation
p1851
(lp1852
I925
aI5
asVRoyce
p1853
(lp1854
I926
aI4
asVcore
p1855
(lp1856
I927
aI5
asV305
p1857
(lp1858
I928
aI3
asVmarketing
p1859
(lp1860
I929
aI19
asVcorn
p1861
(lp1862
I930
aI18
asVshareholders
p1863
(lp1864
I931
aI52
asVDaily
p1865
(lp1866
I932
aI4
asVdiscount
p1867
(lp1868
I933
aI12
asVrestructuring
p1869
(lp1870
I934
aI27
asVDeposit
p1871
(lp1872
I935
aI4
asVupward
p1873
(lp1874
I936
aI7
asVlosing
p1875
(lp1876
I937
aI6
asVbrokerage
p1877
(lp1878
I938
aI23
asVpost
p1879
(lp1880
I939
aI11
asVmanufacturing
p1881
(lp1882
I940
aI16
asVsuper
p1883
(lp1884
I941
aI3
asVproperties
p1885
(lp1886
I942
aI7
asVFirst
p1887
(lp1888
I943
aI37
asVdlrs
p1889
(lp1890
I944
aI931
asVAVX
p1891
(lp1892
I945
aI3
asVdollars
p1893
(lp1894
I946
aI13
asVmonths
p1895
(lp1896
I947
aI76
asVZimbabwe
p1897
(lp1898
I948
aI3
asVannualized
p1899
(lp1900
I949
aI4
asVAustria
p1901
(lp1902
I950
aI3
asVensure
p1903
(lp1904
I951
aI11
asVbanker
p1905
(lp1906
I952
aI10
asVsteadily
p1907
(lp1908
I953
aI7
asVefforts
p1909
(lp1910
I954
aI10
asVslightly
p1911
(lp1912
I955
aI23
asVgenerate
p1913
(lp1914
I956
aI4
asVMachines
p1915
(lp1916
I957
aI5
asVGandhi
p1917
(lp1918
I958
aI7
asVFed
p1919
(lp1920
I959
aI45
asVExpress
p1921
(lp1922
I960
aI44
asVstatements
p1923
(lp1924
I961
aI6
asVfacility
p1925
(lp1926
I962
aI19
asVcivil
p1927
(lp1928
I963
aI8
asVpays
p1929
(lp1930
I964
aI15
asVfloat
p1931
(lp1932
I965
aI6
asVobtaining
p1933
(lp1934
I966
aI3
asVMerchants
p1935
(lp1936
I967
aI5
asVbalances
p1937
(lp1938
I968
aI5
asVManagement
p1939
(lp1940
I969
aI25
asVWeinberger
p1941
(lp1942
I970
aI5
asVraises
p1943
(lp1944
I971
aI6
asVKorean
p1945
(lp1946
I972
aI4
asVreducing
p1947
(lp1948
I973
aI8
asVCranston
p1949
(lp1950
I974
aI6
asVcleared
p1951
(lp1952
I975
aI5
asVexpired
p1953
(lp1954
I976
aI5
asVsupport
p1955
(lp1956
I977
aI56
asVinitial
p1957
(lp1958
I978
aI26
asVlegislation
p1959
(lp1960
I979
aI12
asVpayment
p1961
(lp1962
I980
aI34
asVconservation
p1963
(lp1964
I981
aI3
asVauthorized
p1965
(lp1966
I982
aI6
asVway
p1967
(lp1968
I983
aI33
asVresulted
p1969
(lp1970
I984
aI10
asVSchlang
p1971
(lp1972
I985
aI5
asVlaunching
p1973
(lp1974
I986
aI3
asVhappy
p1975
(lp1976
I987
aI4
asVlowest
p1977
(lp1978
I988
aI10
asVhead
p1979
(lp1980
I989
aI14
asVmedium
p1981
(lp1982
I990
aI11
asVeconomics
p1983
(lp1984
I991
aI3
asVoffering
p1985
(lp1986
I992
aI61
asVoffer
p1987
(lp1988
I993
aI119
asVJanuary
p1989
(lp1990
I994
aI181
asVdifferences
p1991
(lp1992
I995
aI4
asVoil
p1993
(lp1994
I996
aI171
asVSystem
p1995
(lp1996
I997
aI14
asVAkron
p1997
(lp1998
I998
aI6
asVhear
p1999
(lp2000
I999
aI3
asVsyndicate
p2001
(lp2002
I1000
aI8
asVaddress
p2003
(lp2004
I1001
aI9
asVZ
p2005
(lp2006
I1002
aI9
asVAmusements
p2007
(lp2008
I1003
aI11
asVanalyst
p2009
(lp2010
I1004
aI22
asV220
p2011
(lp2012
I1005
aI3
asVreset
p2013
(lp2014
I1006
aI4
asVGolden
p2015
(lp2016
I1007
aI4
asVHK
p2017
(lp2018
I1008
aI9
asVmarkets
p2019
(lp2020
I1009
aI62
asVBRT
p2021
(lp2022
I1010
aI3
asV1983
p2023
(lp2024
I1011
aI13
asVmaximum
p2025
(lp2026
I1012
aI14
asVpeso
p2027
(lp2028
I1013
aI13
asVCounty
p2029
(lp2030
I1014
aI9
asVmaturing
p2031
(lp2032
I1015
aI8
asVEngineering
p2033
(lp2034
I1016
aI5
asVpesos
p2035
(lp2036
I1017
aI16
asVunusually
p2037
(lp2038
I1018
aI3
asVplaintiffs
p2039
(lp2040
I1019
aI4
asV750
p2041
(lp2042
I1020
aI8
asV151
p2043
(lp2044
I1021
aI10
asVtonne
p2045
(lp2046
I1022
aI25
asV153
p2047
(lp2048
I1023
aI3
asV152
p2049
(lp2050
I1024
aI4
asV155
p2051
(lp2052
I1025
aI4
asV154
p2053
(lp2054
I1026
aI3
asV157
p2055
(lp2056
I1027
aI3
asVPersonal
p2057
(lp2058
I1028
aI9
asVrequest
p2059
(lp2060
I1029
aI25
asVcovers
p2061
(lp2062
I1030
aI6
asVevidence
p2063
(lp2064
I1031
aI6
asVVirgin
p2065
(lp2066
I1032
aI4
asVAIBD
p2067
(lp2068
I1033
aI10
asVaccounting
p2069
(lp2070
I1034
aI10
asVship
p2071
(lp2072
I1035
aI3
asVNASDAQ
p2073
(lp2074
I1036
aI4
asVBerne
p2075
(lp2076
I1037
aI3
asVnegotiations
p2077
(lp2078
I1038
aI40
asVphysical
p2079
(lp2080
I1039
aI4
asVFrancisco
p2081
(lp2082
I1040
aI9
asVNoting
p2083
(lp2084
I1041
aI3
asVeventual
p2085
(lp2086
I1042
aI3
asVfloor
p2087
(lp2088
I1043
aI4
asVagreeing
p2089
(lp2090
I1044
aI3
asVstake
p2091
(lp2092
I1045
aI57
asVgenerally
p2093
(lp2094
I1046
aI7
asVcrowns
p2095
(lp2096
I1047
aI6
asVnegotiators
p2097
(lp2098
I1048
aI6
asVcomposite
p2099
(lp2100
I1049
aI7
asVtin
p2101
(lp2102
I1050
aI22
asVinterested
p2103
(lp2104
I1051
aI12
asVrole
p2105
(lp2106
I1052
aI15
asVholding
p2107
(lp2108
I1053
aI15
asVdigital
p2109
(lp2110
I1054
aI4
asVtest
p2111
(lp2112
I1055
aI9
asVPhilippines
p2113
(lp2114
I1056
aI17
asVevergreen
p2115
(lp2116
I1057
aI3
asVexporter
p2117
(lp2118
I1058
aI5
asVE
p2119
(lp2120
I1059
aI17
asVMerrill
p2121
(lp2122
I1060
aI23
asVTrucks
p2123
(lp2124
I1061
aI3
asVEcus
p2125
(lp2126
I1062
aI6
asVmodels
p2127
(lp2128
I1063
aI10
asVKLM
p2129
(lp2130
I1064
aI7
asVpreceding
p2131
(lp2132
I1065
aI5
asVwelcome
p2133
(lp2134
I1066
aI4
asVutilities
p2135
(lp2136
I1067
aI4
asVdefence
p2137
(lp2138
I1068
aI13
asVfell
p2139
(lp2140
I1069
aI74
asVintent
p2141
(lp2142
I1070
aI10
asVexported
p2143
(lp2144
I1071
aI8
asVrising
p2145
(lp2146
I1072
aI21
asVSchiebel
p2147
(lp2148
I1073
aI3
asVauthorities
p2149
(lp2150
I1074
aI10
asVtransfers
p2151
(lp2152
I1075
aI4
asVweekend
p2153
(lp2154
I1076
aI13
asVbillion
p2155
(lp2156
I1077
aI483
asVreorganization
p2157
(lp2158
I1078
aI4
asVlonger
p2159
(lp2160
I1079
aI12
asVEstate
p2161
(lp2162
I1080
aI4
asVproposed
p2163
(lp2164
I1081
aI56
asVCharles
p2165
(lp2166
I1082
aI3
asVchanged
p2167
(lp2168
I1083
aI10
asVQuaker
p2169
(lp2170
I1084
aI3
asVdaily
p2171
(lp2172
I1085
aI23
asVfiling
p2173
(lp2174
I1086
aI19
asVeliminate
p2175
(lp2176
I1087
aI5
asVpremiums
p2177
(lp2178
I1088
aI6
asVtime
p2179
(lp2180
I1089
aI88
asVpush
p2181
(lp2182
I1090
aI6
asVAMC
p2183
(lp2184
I1091
aI14
asVrestored
p2185
(lp2186
I1092
aI4
asVFund
p2187
(lp2188
I1093
aI32
asVmanaged
p2189
(lp2190
I1094
aI6
asVchain
p2191
(lp2192
I1095
aI3
asVaffair
p2193
(lp2194
I1096
aI6
asVSun
p2195
(lp2196
I1097
aI6
asVglobal
p2197
(lp2198
I1098
aI11
asVgap
p2199
(lp2200
I1099
aI9
asVfocus
p2201
(lp2202
I1100
aI4
asVdeliveries
p2203
(lp2204
I1101
aI13
asVmanager
p2205
(lp2206
I1102
aI45
asVRepublic
p2207
(lp2208
I1103
aI4
asVbattle
p2209
(lp2210
I1104
aI3
asVHu
p2211
(lp2212
I1105
aI5
asVLouisiana
p2213
(lp2214
I1106
aI6
asVmilk
p2215
(lp2216
I1107
aI4
asVToday
p2217
(lp2218
I1108
aI3
asVhold
p2219
(lp2220
I1109
aI24
asVColumbia
p2221
(lp2222
I1110
aI10
asVzone
p2223
(lp2224
I1111
aI5
asVFrans
p2225
(lp2226
I1112
aI3
asVtariff
p2227
(lp2228
I1113
aI3
asVsuspending
p2229
(lp2230
I1114
aI3
asVRobur
p2231
(lp2232
I1115
aI3
asVW
p2233
(lp2234
I1116
aI10
asV0
p2235
(lp2236
I1117
aI130
asVcharge
p2237
(lp2238
I1118
aI10
asVnewsprint
p2239
(lp2240
I1119
aI4
asVpromoting
p2241
(lp2242
I1120
aI5
asVmarks
p2243
(lp2244
I1121
aI20
asVPurolator
p2245
(lp2246
I1122
aI19
asVsovereignty
p2247
(lp2248
I1123
aI3
asVcircumstances
p2249
(lp2250
I1124
aI4
asVswap
p2251
(lp2252
I1125
aI6
asV817
p2253
(lp2254
I1126
aI3
asVCantrex
p2255
(lp2256
I1127
aI3
asVEquatorial
p2257
(lp2258
I1128
aI12
asVfederation
p2259
(lp2260
I1129
aI3
asVadvantage
p2261
(lp2262
I1130
aI8
asVCountries
p2263
(lp2264
I1131
aI5
asVcheap
p2265
(lp2266
I1132
aI3
asVChirac
p2267
(lp2268
I1133
aI5
asVchoice
p2269
(lp2270
I1134
aI8
asVfees
p2271
(lp2272
I1135
aI7
asVDivision
p2273
(lp2274
I1136
aI3
asVPlus
p2275
(lp2276
I1137
aI3
asVservicing
p2277
(lp2278
I1138
aI4
asVtanks
p2279
(lp2280
I1139
aI5
asVadvised
p2281
(lp2282
I1140
aI3
asVFinancial
p2283
(lp2284
I1141
aI21
asVexact
p2285
(lp2286
I1142
aI5
asVminute
p2287
(lp2288
I1143
aI5
asVroom
p2289
(lp2290
I1144
aI3
asVpresented
p2291
(lp2292
I1145
aI10
asVdid
p2293
(lp2294
I1146
aI67
asVKingdom
p2295
(lp2296
I1147
aI3
asVsteeply
p2297
(lp2298
I1148
aI3
asVTax
p2299
(lp2300
I1149
aI6
asVstandards
p2301
(lp2302
I1150
aI7
asVleave
p2303
(lp2304
I1151
aI11
asVitem
p2305
(lp2306
I1152
aI8
asVsettle
p2307
(lp2308
I1153
aI4
asVteam
p2309
(lp2310
I1154
aI5
asVquick
p2311
(lp2312
I1155
aI4
asVspeculation
p2313
(lp2314
I1156
aI14
asVHe
p2315
(lp2316
I1157
aI153
asVstiffer
p2317
(lp2318
I1158
aI3
asVGeorge
p2319
(lp2320
I1159
aI13
asVadded
p2321
(lp2322
I1160
aI98
asVprevent
p2323
(lp2324
I1161
aI7
asVsays
p2325
(lp2326
I1162
aI23
asVregret
p2327
(lp2328
I1163
aI3
asVfindings
p2329
(lp2330
I1164
aI3
asVtrend
p2331
(lp2332
I1165
aI8
asVdealing
p2333
(lp2334
I1166
aI9
asVCME
p2335
(lp2336
I1167
aI4
asVNova
p2337
(lp2338
I1168
aI3
asVsign
p2339
(lp2340
I1169
aI3
asVWaikato
p2341
(lp2342
I1170
aI4
asVslowed
p2343
(lp2344
I1171
aI6
asVcost
p2345
(lp2346
I1172
aI45
asVM1
p2347
(lp2348
I1173
aI4
asVNorthwest
p2349
(lp2350
I1174
aI5
asVM3
p2351
(lp2352
I1175
aI6
asVM2
p2353
(lp2354
I1176
aI4
asVBryson
p2355
(lp2356
I1177
aI6
asVbales
p2357
(lp2358
I1178
aI5
asVtargets
p2359
(lp2360
I1179
aI6
asVcargo
p2361
(lp2362
I1180
aI4
asVappear
p2363
(lp2364
I1181
aI8
asVrepresentative
p2365
(lp2366
I1182
aI6
asVSubscriptions
p2367
(lp2368
I1183
aI3
asVconsortium
p2369
(lp2370
I1184
aI4
asVassistance
p2371
(lp2372
I1185
aI4
asVdisease
p2373
(lp2374
I1186
aI4
asVfavour
p2375
(lp2376
I1187
aI3
asVshares
p2377
(lp2378
I1188
aI195
asVFord
p2379
(lp2380
I1189
aI22
asVcurrent
p2381
(lp2382
I1190
aI78
asV525
p2383
(lp2384
I1191
aI4
asVCruz
p2385
(lp2386
I1192
aI6
asVgoes
p2387
(lp2388
I1193
aI4
asVDuring
p2389
(lp2390
I1194
aI5
asVfalling
p2391
(lp2392
I1195
aI17
asVstaff
p2393
(lp2394
I1196
aI16
asVboost
p2395
(lp2396
I1197
aI19
asVfilled
p2397
(lp2398
I1198
aI3
asVcollateral
p2399
(lp2400
I1199
aI3
asVtotalling
p2401
(lp2402
I1200
aI9
asVjury
p2403
(lp2404
I1201
aI5
asVpromissory
p2405
(lp2406
I1202
aI3
asVheavily
p2407
(lp2408
I1203
aI6
asV304
p2409
(lp2410
I1204
aI3
asVclerk
p2411
(lp2412
I1205
aI3
asVunderstanding
p2413
(lp2414
I1206
aI3
asVwater
p2415
(lp2416
I1207
aI7
asVcorporation
p2417
(lp2418
I1208
aI6
asVgroups
p2419
(lp2420
I1209
aI8
asVLtd
p2421
(lp2422
I1210
aI132
asVDistribution
p2423
(lp2424
I1211
aI3
asVdwindling
p2425
(lp2426
I1212
aI3
asVappears
p2427
(lp2428
I1213
aI7
asVchange
p2429
(lp2430
I1214
aI39
asVWarner
p2431
(lp2432
I1215
aI9
asVMD
p2433
(lp2434
I1216
aI3
asVunidentified
p2435
(lp2436
I1217
aI3
asVDean
p2437
(lp2438
I1218
aI12
asVredemption
p2439
(lp2440
I1219
aI14
asVhealthy
p2441
(lp2442
I1220
aI4
asVearned
p2443
(lp2444
I1221
aI9
asVfunded
p2445
(lp2446
I1222
aI3
asVSweden
p2447
(lp2448
I1223
aI7
asVtrial
p2449
(lp2450
I1224
aI3
asVAssociates
p2451
(lp2452
I1225
aI6
asVMS
p2453
(lp2454
I1226
aI6
asVIRNA
p2455
(lp2456
I1227
aI3
asVTechnology
p2457
(lp2458
I1228
aI7
asVDiablo
p2459
(lp2460
I1229
aI3
asVuseful
p2461
(lp2462
I1230
aI5
asVraise
p2463
(lp2464
I1231
aI18
asVsoybeans
p2465
(lp2466
I1232
aI16
asVlending
p2467
(lp2468
I1233
aI20
asVprefer
p2469
(lp2470
I1234
aI3
asVmarked
p2471
(lp2472
I1235
aI6
asV89
p2473
(lp2474
I1236
aI5
asVlicensing
p2475
(lp2476
I1237
aI13
asVDOS
p2477
(lp2478
I1238
aI6
asVwithdrawing
p2479
(lp2480
I1239
aI4
asVNikko
p2481
(lp2482
I1240
aI7
asVcrisis
p2483
(lp2484
I1241
aI21
asVEcuador
p2485
(lp2486
I1242
aI3
asVhotels
p2487
(lp2488
I1243
aI4
asVWEDGE
p2489
(lp2490
I1244
aI6
asVAustralia
p2491
(lp2492
I1245
aI21
asVAugust
p2493
(lp2494
I1246
aI20
asVworking
p2495
(lp2496
I1247
aI24
asVpositive
p2497
(lp2498
I1248
aI9
asVangry
p2499
(lp2500
I1249
aI3
asVwane
p2501
(lp2502
I1250
aI3
asVvisit
p2503
(lp2504
I1251
aI11
asVpredictions
p2505
(lp2506
I1252
aI3
asVinsider
p2507
(lp2508
I1253
aI4
asVlive
p2509
(lp2510
I1254
aI3
asVVisa
p2511
(lp2512
I1255
aI4
asVopposed
p2513
(lp2514
I1256
aI8
asVmemory
p2515
(lp2516
I1257
aI11
asVfilms
p2517
(lp2518
I1258
aI4
asVscope
p2519
(lp2520
I1259
aI3
asVassociated
p2521
(lp2522
I1260
aI5
asVprev
p2523
(lp2524
I1261
aI8
asVtoday
p2525
(lp2526
I1262
aI121
asVsharing
p2527
(lp2528
I1263
aI3
asVF
p2529
(lp2530
I1264
aI21
asVThese
p2531
(lp2532
I1265
aI7
asVapparent
p2533
(lp2534
I1266
aI6
asVleaving
p2535
(lp2536
I1267
aI3
asVComplaints
p2537
(lp2538
I1268
aI3
asVlong
p2539
(lp2540
I1269
aI46
asVcontaining
p2541
(lp2542
I1270
aI7
asVcases
p2543
(lp2544
I1271
aI8
asVeffort
p2545
(lp2546
I1272
aI12
asVbehalf
p2547
(lp2548
I1273
aI3
asVbushels
p2549
(lp2550
I1274
aI5
asVfly
p2551
(lp2552
I1275
aI3
asVorganizations
p2553
(lp2554
I1276
aI5
asVvalued
p2555
(lp2556
I1277
aI12
asVedible
p2557
(lp2558
I1278
aI4
asVindicates
p2559
(lp2560
I1279
aI6
asVGerman
p2561
(lp2562
I1280
aI18
asVcar
p2563
(lp2564
I1281
aI12
asVoriginally
p2565
(lp2566
I1282
aI6
asVcap
p2567
(lp2568
I1283
aI3
asVLebanon
p2569
(lp2570
I1284
aI3
asVPacific
p2571
(lp2572
I1285
aI28
asVbelieves
p2573
(lp2574
I1286
aI7
asVdistricts
p2575
(lp2576
I1287
aI4
asVimpasse
p2577
(lp2578
I1288
aI6
asVprinting
p2579
(lp2580
I1289
aI3
asVvalues
p2581
(lp2582
I1290
aI7
asVachieve
p2583
(lp2584
I1291
aI8
asVbelieved
p2585
(lp2586
I1292
aI14
asVOur
p2587
(lp2588
I1293
aI10
asVarrive
p2589
(lp2590
I1294
aI3
asVNewsweek
p2591
(lp2592
I1295
aI3
asVMr
p2593
(lp2594
I1296
aI3
asVsocial
p2595
(lp2596
I1297
aI4
asVheart
p2597
(lp2598
I1298
aI4
asVrebuffed
p2599
(lp2600
I1299
aI3
asVwant
p2601
(lp2602
I1300
aI17
asVstream
p2603
(lp2604
I1301
aI3
asVFederal
p2605
(lp2606
I1302
aI48
asVexpanding
p2607
(lp2608
I1303
aI9
asVchip
p2609
(lp2610
I1304
aI15
asVagent
p2611
(lp2612
I1305
aI4
asVLogician
p2613
(lp2614
I1306
aI5
asVSchoufour
p2615
(lp2616
I1307
aI3
asV238
p2617
(lp2618
I1308
aI3
asVBAC
p2619
(lp2620
I1309
aI4
asVunveiled
p2621
(lp2622
I1310
aI4
asVallowed
p2623
(lp2624
I1311
aI9
asV234
p2625
(lp2626
I1312
aI6
asVhandle
p2627
(lp2628
I1313
aI6
asV236
p2629
(lp2630
I1314
aI3
asV230
p2631
(lp2632
I1315
aI4
asVoccur
p2633
(lp2634
I1316
aI3
asVparliamentary
p2635
(lp2636
I1317
aI4
asVTerms
p2637
(lp2638
I1318
aI10
asVwinter
p2639
(lp2640
I1319
aI5
asVMarketing
p2641
(lp2642
I1320
aI4
asVdivided
p2643
(lp2644
I1321
aI5
asVmeans
p2645
(lp2646
I1322
aI12
asVmagazine
p2647
(lp2648
I1323
aI5
asV1
p2649
(lp2650
I1324
aI629
asVounce
p2651
(lp2652
I1325
aI7
asVfourth
p2653
(lp2654
I1326
aI27
asVH
p2655
(lp2656
I1327
aI17
asVplus
p2657
(lp2658
I1328
aI24
asVInterstate
p2659
(lp2660
I1329
aI5
asVeconomy
p2661
(lp2662
I1330
aI65
asVproduct
p2663
(lp2664
I1331
aI31
asV145
p2665
(lp2666
I1332
aI4
asV143
p2667
(lp2668
I1333
aI3
asV140
p2669
(lp2670
I1334
aI15
asVEagle
p2671
(lp2672
I1335
aI4
asVliberalisation
p2673
(lp2674
I1336
aI4
asVAverage
p2675
(lp2676
I1337
aI4
asVuse
p2677
(lp2678
I1338
aI42
asVspot
p2679
(lp2680
I1339
aI20
asV148
p2681
(lp2682
I1340
aI4
asVEarly
p2683
(lp2684
I1341
aI3
asVapplications
p2685
(lp2686
I1342
aI14
asVmembership
p2687
(lp2688
I1343
aI3
asVproduce
p2689
(lp2690
I1344
aI22
asV132
p2691
(lp2692
I1345
aI5
asVdesigned
p2693
(lp2694
I1346
aI23
asVdate
p2695
(lp2696
I1347
aI42
asVdrastic
p2697
(lp2698
I1348
aI3
asVemployers
p2699
(lp2700
I1349
aI8
asVdata
p2701
(lp2702
I1350
aI24
asVgrow
p2703
(lp2704
I1351
aI7
asVrecovery
p2705
(lp2706
I1352
aI6
asVnatural
p2707
(lp2708
I1353
aI15
asVGuaranty
p2709
(lp2710
I1354
aI5
asVsectors
p2711
(lp2712
I1355
aI7
asVjoint
p2713
(lp2714
I1356
aI32
asVBaden
p2715
(lp2716
I1357
aI3
asVNCR
p2717
(lp2718
I1358
aI5
asVfutures
p2719
(lp2720
I1359
aI55
asVborrowing
p2721
(lp2722
I1360
aI17
asVyielding
p2723
(lp2724
I1361
aI3
asVOngpin
p2725
(lp2726
I1362
aI26
asVInland
p2727
(lp2728
I1363
aI5
asVSources
p2729
(lp2730
I1364
aI3
asVswitch
p2731
(lp2732
I1365
aI4
asVNursery
p2733
(lp2734
I1366
aI5
asVtruck
p2735
(lp2736
I1367
aI3
asVdeposit
p2737
(lp2738
I1368
aI15
asVdeclines
p2739
(lp2740
I1369
aI8
asVequities
p2741
(lp2742
I1370
aI4
asVrepresentation
p2743
(lp2744
I1371
aI5
asVtalk
p2745
(lp2746
I1372
aI11
asVFNV
p2747
(lp2748
I1373
aI6
asVMississippi
p2749
(lp2750
I1374
aI3
asV81
p2751
(lp2752
I1375
aI11
asVmisapplication
p2753
(lp2754
I1376
aI3
asVbbl
p2755
(lp2756
I1377
aI3
asVpointed
p2757
(lp2758
I1378
aI9
asVdisplayed
p2759
(lp2760
I1379
aI3
asVraised
p2761
(lp2762
I1380
aI32
asVmaking
p2763
(lp2764
I1381
aI33
asVyears
p2765
(lp2766
I1382
aI114
asVJan
p2767
(lp2768
I1383
aI7
asVcourse
p2769
(lp2770
I1384
aI6
asVShr
p2771
(lp2772
I1385
aI23
asVStates
p2773
(lp2774
I1386
aI27
asVshake
p2775
(lp2776
I1387
aI3
asVspinoff
p2777
(lp2778
I1388
aI9
asVFeb
p2779
(lp2780
I1389
aI24
asVcold
p2781
(lp2782
I1390
aI3
asVBolivia
p2783
(lp2784
I1391
aI6
asV86
p2785
(lp2786
I1392
aI31
asVpolice
p2787
(lp2788
I1393
aI7
asVmonitor
p2789
(lp2790
I1394
aI6
asVchips
p2791
(lp2792
I1395
aI20
asVorganisation
p2793
(lp2794
I1396
aI5
asVamounted
p2795
(lp2796
I1397
aI3
asVtroubles
p2797
(lp2798
I1398
aI4
asVwindow
p2799
(lp2800
I1399
aI5
asVWTC
p2801
(lp2802
I1400
aI7
asVWhitney
p2803
(lp2804
I1401
aI3
asVlisting
p2805
(lp2806
I1402
aI10
asVpolicy
p2807
(lp2808
I1403
aI37
asVmail
p2809
(lp2810
I1404
aI10
asVchances
p2811
(lp2812
I1405
aI4
asV930
p2813
(lp2814
I1406
aI4
asVpetition
p2815
(lp2816
I1407
aI7
asVhappened
p2817
(lp2818
I1408
aI3
asVclosure
p2819
(lp2820
I1409
aI5
asVnon
p2821
(lp2822
I1410
aI48
asVMarais
p2823
(lp2824
I1411
aI3
asVCommodities
p2825
(lp2826
I1412
aI4
asVhalt
p2827
(lp2828
I1413
aI6
asVRogers
p2829
(lp2830
I1414
aI3
asVviews
p2831
(lp2832
I1415
aI5
asVsweetened
p2833
(lp2834
I1416
aI3
asVundisclosed
p2835
(lp2836
I1417
aI14
asVintroduce
p2837
(lp2838
I1418
aI13
asVnation
p2839
(lp2840
I1419
aI15
asVSheikh
p2841
(lp2842
I1420
aI11
asVSoriano
p2843
(lp2844
I1421
aI5
asVDevelle
p2845
(lp2846
I1422
aI3
asVdrilling
p2847
(lp2848
I1423
aI8
asV1953
p2849
(lp2850
I1424
aI3
asVhalf
p2851
(lp2852
I1425
aI37
asVTower
p2853
(lp2854
I1426
aI18
asVLaboratories
p2855
(lp2856
I1427
aI3
asVprovision
p2857
(lp2858
I1428
aI20
asVdiscuss
p2859
(lp2860
I1429
aI10
asVsubordinated
p2861
(lp2862
I1430
aI15
asVmatched
p2863
(lp2864
I1431
aI5
asVterm
p2865
(lp2866
I1432
aI65
asVattorneys
p2867
(lp2868
I1433
aI3
asVtrucks
p2869
(lp2870
I1434
aI7
asVstabilize
p2871
(lp2872
I1435
aI3
asVOPEC
p2873
(lp2874
I1436
aI54
asVIII
p2875
(lp2876
I1437
aI4
asVdrop
p2877
(lp2878
I1438
aI20
asV47
p2879
(lp2880
I1439
aI14
asVimprovements
p2881
(lp2882
I1440
aI4
asVMines
p2883
(lp2884
I1441
aI3
asVAgricultural
p2885
(lp2886
I1442
aI4
asVentirely
p2887
(lp2888
I1443
aI4
asVquarter
p2889
(lp2890
I1444
aI95
asVshareholder
p2891
(lp2892
I1445
aI14
asVAirbus
p2893
(lp2894
I1446
aI12
asVZealand
p2895
(lp2896
I1447
aI16
asVsquare
p2897
(lp2898
I1448
aI5
asVbranch
p2899
(lp2900
I1449
aI8
asVfired
p2901
(lp2902
I1450
aI4
asVHoldings
p2903
(lp2904
I1451
aI28
asVOrganisation
p2905
(lp2906
I1452
aI5
asVrevised
p2907
(lp2908
I1453
aI39
asVLower
p2909
(lp2910
I1454
aI7
asVowing
p2911
(lp2912
I1455
aI3
asVex
p2913
(lp2914
I1456
aI6
asVbegun
p2915
(lp2916
I1457
aI5
asVyear
p2917
(lp2918
I1458
aI551
asVdistributor
p2919
(lp2920
I1459
aI3
asVet
p2921
(lp2922
I1460
aI3
asVredeem
p2923
(lp2924
I1461
aI12
asVKong
p2925
(lp2926
I1462
aI29
asVrefined
p2927
(lp2928
I1463
aI3
asVtried
p2929
(lp2930
I1464
aI7
asVliving
p2931
(lp2932
I1465
aI6
asVshown
p2933
(lp2934
I1466
aI5
asVcontainer
p2935
(lp2936
I1467
aI3
asVopened
p2937
(lp2938
I1468
aI6
asV790
p2939
(lp2940
I1469
aI3
asVprofit
p2941
(lp2942
I1470
aI48
asVMichigan
p2943
(lp2944
I1471
aI3
asVactivities
p2945
(lp2946
I1472
aI19
asVRMJ
p2947
(lp2948
I1473
aI20
asVincrease
p2949
(lp2950
I1474
aI85
asVseriously
p2951
(lp2952
I1475
aI5
asVinvestigation
p2953
(lp2954
I1476
aI5
asVsuggesting
p2955
(lp2956
I1477
aI4
asVformula
p2957
(lp2958
I1478
aI3
asVprotected
p2959
(lp2960
I1479
aI5
asVreceiving
p2961
(lp2962
I1480
aI3
asVCommerce
p2963
(lp2964
I1481
aI13
asVlag
p2965
(lp2966
I1482
aI3
asVcurbs
p2967
(lp2968
I1483
aI4
asVCitibank
p2969
(lp2970
I1484
aI6
asVWestpac
p2971
(lp2972
I1485
aI6
asVcars
p2973
(lp2974
I1486
aI25
asVmillion
p2975
(lp2976
I1487
aI7
asVincentives
p2977
(lp2978
I1488
aI8
asVpumping
p2979
(lp2980
I1489
aI4
asVpossibility
p2981
(lp2982
I1490
aI11
asVquite
p2983
(lp2984
I1491
aI4
asVunwanted
p2985
(lp2986
I1492
aI5
asVLambert
p2987
(lp2988
I1493
aI3
asVsuccess
p2989
(lp2990
I1494
aI8
asVrepurchase
p2991
(lp2992
I1495
aI8
asVSecurity
p2993
(lp2994
I1496
aI11
asVore
p2995
(lp2996
I1497
aI4
asVremainder
p2997
(lp2998
I1498
aI5
asVOptions
p2999
(lp3000
I1499
aI3
asVWhampoa
p3001
(lp3002
I1500
aI3
asVcare
p3003
(lp3004
I1501
aI3
asVadvance
p3005
(lp3006
I1502
aI4
asVgilts
p3007
(lp3008
I1503
aI7
asVcarnival
p3009
(lp3010
I1504
aI7
asVministry
p3011
(lp3012
I1505
aI20
asVBattery
p3013
(lp3014
I1506
aI6
asVBuckhorn
p3015
(lp3016
I1507
aI5
asVMatsumoto
p3017
(lp3018
I1508
aI3
asVinitiate
p3019
(lp3020
I1509
aI3
asVindustrialised
p3021
(lp3022
I1510
aI4
asVmassive
p3023
(lp3024
I1511
aI6
asVroutes
p3025
(lp3026
I1512
aI3
asVHungary
p3027
(lp3028
I1513
aI6
asVErie
p3029
(lp3030
I1514
aI3
asVthink
p3031
(lp3032
I1515
aI23
asVBaka
p3033
(lp3034
I1516
aI3
asVBrazil
p3035
(lp3036
I1517
aI107
asVOntario
p3037
(lp3038
I1518
aI6
asVsaving
p3039
(lp3040
I1519
aI4
asVrevenue
p3041
(lp3042
I1520
aI20
asVThere
p3043
(lp3044
I1521
aI25
asVRoyal
p3045
(lp3046
I1522
aI4
asVAsia
p3047
(lp3048
I1523
aI9
asVhopes
p3049
(lp3050
I1524
aI11
asVreopen
p3051
(lp3052
I1525
aI4
asVRates
p3053
(lp3054
I1526
aI7
asVfast
p3055
(lp3056
I1527
aI5
asVdirectly
p3057
(lp3058
I1528
aI8
asVemployment
p3059
(lp3060
I1529
aI11
asVvote
p3061
(lp3062
I1530
aI12
asVimpossible
p3063
(lp3064
I1531
aI7
asVways
p3065
(lp3066
I1532
aI8
asVopen
p3067
(lp3068
I1533
aI25
asVtomorrow
p3069
(lp3070
I1534
aI23
asVsize
p3071
(lp3072
I1535
aI6
asVcity
p3073
(lp3074
I1536
aI12
asVlittle
p3075
(lp3076
I1537
aI19
asVSuffield
p3077
(lp3078
I1538
aI4
asVofficials
p3079
(lp3080
I1539
aI82
asVsilent
p3081
(lp3082
I1540
aI3
asVMonday
p3083
(lp3084
I1541
aI3
asVpharmaceuticals
p3085
(lp3086
I1542
aI4
asVCommercial
p3087
(lp3088
I1543
aI10
asVresponse
p3089
(lp3090
I1544
aI15
asVindicate
p3091
(lp3092
I1545
aI3
asV2
p3093
(lp3094
I1546
aI402
asVSEC
p3095
(lp3096
I1547
aI39
asVQuarto
p3097
(lp3098
I1548
aI3
asVSuch
p3099
(lp3100
I1549
aI3
asVPost
p3101
(lp3102
I1550
aI3
asVData
p3103
(lp3104
I1551
aI12
asVSpain
p3105
(lp3106
I1552
aI5
asVmining
p3107
(lp3108
I1553
aI12
asVfraction
p3109
(lp3110
I1554
aI3
asVcourier
p3111
(lp3112
I1555
aI10
asVcope
p3113
(lp3114
I1556
aI3
asVownership
p3115
(lp3116
I1557
aI6
asVseason
p3117
(lp3118
I1558
aI14
asVCalny
p3119
(lp3120
I1559
aI7
asVreleased
p3121
(lp3122
I1560
aI13
asVsimply
p3123
(lp3124
I1561
aI3
asVmaize
p3125
(lp3126
I1562
aI13
asVprobably
p3127
(lp3128
I1563
aI21
asVcopy
p3129
(lp3130
I1564
aI3
asVrepresenting
p3131
(lp3132
I1565
aI12
asVinterbank
p3133
(lp3134
I1566
aI6
asVspecify
p3135
(lp3136
I1567
aI6
asVpopulation
p3137
(lp3138
I1568
aI4
asV11
p3139
(lp3140
I1569
aI63
asV10
p3141
(lp3142
I1570
aI152
asVtelevision
p3143
(lp3144
I1571
aI17
asVunderwritten
p3145
(lp3146
I1572
aI5
asV15
p3147
(lp3148
I1573
aI127
asV14
p3149
(lp3150
I1574
aI46
asV17
p3151
(lp3152
I1575
aI37
asV16
p3153
(lp3154
I1576
aI67
asVdepressed
p3155
(lp3156
I1577
aI7
asVrival
p3157
(lp3158
I1578
aI3
asVrequire
p3159
(lp3160
I1579
aI6
asVdiplomatic
p3161
(lp3162
I1580
aI3
asVoptimism
p3163
(lp3164
I1581
aI7
asVwar
p3165
(lp3166
I1582
aI9
asVspokeswoman
p3167
(lp3168
I1583
aI15
asVSears
p3169
(lp3170
I1584
aI7
asVfuture
p3171
(lp3172
I1585
aI49
asVriyals
p3173
(lp3174
I1586
aI6
asVdisagreed
p3175
(lp3176
I1587
aI3
asVventure
p3177
(lp3178
I1588
aI25
asVMaxwell
p3179
(lp3180
I1589
aI5
asVcards
p3181
(lp3182
I1590
aI3
asVoutcome
p3183
(lp3184
I1591
aI7
asVpublished
p3185
(lp3186
I1592
aI14
asVpre
p3187
(lp3188
I1593
aI14
asVSteel
p3189
(lp3190
I1594
aI13
asVcontentious
p3191
(lp3192
I1595
aI3
asVinvestors
p3193
(lp3194
I1596
aI31
asVMarcos
p3195
(lp3196
I1597
aI3
asVacknowledged
p3197
(lp3198
I1598
aI5
asVtopics
p3199
(lp3200
I1599
aI3
asVmeasure
p3201
(lp3202
I1600
aI6
asVPhiladelphia
p3203
(lp3204
I1601
aI5
asVJapanese
p3205
(lp3206
I1602
aI89
asVmedical
p3207
(lp3208
I1603
aI6
asVsay
p3209
(lp3210
I1604
aI50
asVCall
p3211
(lp3212
I1605
aI4
asVCombined
p3213
(lp3214
I1606
aI4
asVKadoorie
p3215
(lp3216
I1607
aI6
asVDNA
p3217
(lp3218
I1608
aI3
asVrecover
p3219
(lp3220
I1609
aI5
asVsaw
p3221
(lp3222
I1610
aI11
asVconversion
p3223
(lp3224
I1611
aI7
asVform
p3225
(lp3226
I1612
aI21
asVUCPB
p3227
(lp3228
I1613
aI6
asVmanufacturers
p3229
(lp3230
I1614
aI6
asVTelcom
p3231
(lp3232
I1615
aI3
asVaside
p3233
(lp3234
I1616
aI3
asVBeesley
p3235
(lp3236
I1617
aI5
asVnote
p3237
(lp3238
I1618
aI10
asVequipment
p3239
(lp3240
I1619
aI17
asVEcu
p3241
(lp3242
I1620
aI3
asVpotential
p3243
(lp3244
I1621
aI16
asVGMB
p3245
(lp3246
I1622
aI5
asVobjective
p3247
(lp3248
I1623
aI3
asVperformance
p3249
(lp3250
I1624
aI20
asVDu
p3251
(lp3252
I1625
aI4
asVInvestor
p3253
(lp3254
I1626
aI5
asVLloyd
p3255
(lp3256
I1627
aI4
asV200
p3257
(lp3258
I1628
aI48
asVbegin
p3259
(lp3260
I1629
aI23
asVTsukihara
p3261
(lp3262
I1630
aI3
asVmultiple
p3263
(lp3264
I1631
aI6
asVDealers
p3265
(lp3266
I1632
aI10
asVnormal
p3267
(lp3268
I1633
aI5
asVMalaysian
p3269
(lp3270
I1634
aI4
asVprice
p3271
(lp3272
I1635
aI141
asVPhilippine
p3273
(lp3274
I1636
aI8
asVpaid
p3275
(lp3276
I1637
aI36
asVspecialty
p3277
(lp3278
I1638
aI7
asVprinted
p3279
(lp3280
I1639
aI4
asVhoped
p3281
(lp3282
I1640
aI6
asVplanning
p3283
(lp3284
I1641
aI10
asVTrust
p3285
(lp3286
I1642
aI25
asVespecially
p3287
(lp3288
I1643
aI6
asVfailure
p3289
(lp3290
I1644
aI10
asVNRC
p3291
(lp3292
I1645
aI7
asVaverage
p3293
(lp3294
I1646
aI39
asVlater
p3295
(lp3296
I1647
aI37
asVimplications
p3297
(lp3298
I1648
aI4
asVsale
p3299
(lp3300
I1649
aI66
asVwing
p3301
(lp3302
I1650
aI3
asVmanaging
p3303
(lp3304
I1651
aI11
asVMI
p3305
(lp3306
I1652
aI3
asVrefining
p3307
(lp3308
I1653
aI3
asVpattern
p3309
(lp3310
I1654
aI3
asVprofessional
p3311
(lp3312
I1655
aI3
asVsenior
p3313
(lp3314
I1656
aI51
asVliquidity
p3315
(lp3316
I1657
aI16
asVlaws
p3317
(lp3318
I1658
aI17
asVrating
p3319
(lp3320
I1659
aI12
asVLukman
p3321
(lp3322
I1660
aI7
asVshot
p3323
(lp3324
I1661
aI4
asVsurplus
p3325
(lp3326
I1662
aI53
asVWhittaker
p3327
(lp3328
I1663
aI3
asVfiled
p3329
(lp3330
I1664
aI14
asVallegations
p3331
(lp3332
I1665
aI3
asVBalladur
p3333
(lp3334
I1666
aI5
asVmerit
p3335
(lp3336
I1667
aI6
asVResearch
p3337
(lp3338
I1668
aI8
asVSwitzerland
p3339
(lp3340
I1669
aI20
asVReuters
p3341
(lp3342
I1670
aI50
asVSystems
p3343
(lp3344
I1671
aI23
asVsubsidiary
p3345
(lp3346
I1672
aI47
asVStephen
p3347
(lp3348
I1673
aI4
asVBundesbank
p3349
(lp3350
I1674
aI19
asVinjection
p3351
(lp3352
I1675
aI3
asVfifth
p3353
(lp3354
I1676
aI3
asVground
p3355
(lp3356
I1677
aI4
asVWe
p3357
(lp3358
I1678
aI52
asVslow
p3359
(lp3360
I1679
aI7
asVratio
p3361
(lp3362
I1680
aI10
asVdlr
p3363
(lp3364
I1681
aI115
asVKansas
p3365
(lp3366
I1682
aI7
asVoutside
p3367
(lp3368
I1683
aI9
asVgoing
p3369
(lp3370
I1684
aI29
asVblack
p3371
(lp3372
I1685
aI9
asVequipped
p3373
(lp3374
I1686
aI7
asVServices
p3375
(lp3376
I1687
aI12
asVGMT
p3377
(lp3378
I1688
aI6
asVdispute
p3379
(lp3380
I1689
aI9
asVAssets
p3381
(lp3382
I1690
aI5
asVShearson
p3383
(lp3384
I1691
aI37
asVcontracts
p3385
(lp3386
I1692
aI50
asVassistant
p3387
(lp3388
I1693
aI3
asVtruly
p3389
(lp3390
I1694
aI3
asVhailed
p3391
(lp3392
I1695
aI3
asVProducts
p3393
(lp3394
I1696
aI11
asVnearly
p3395
(lp3396
I1697
aI16
asVdetermine
p3397
(lp3398
I1698
aI11
asVinformation
p3399
(lp3400
I1699
aI17
asVawaiting
p3401
(lp3402
I1700
aI4
asVIllinois
p3403
(lp3404
I1701
aI7
asVjustified
p3405
(lp3406
I1702
aI3
asVGrowth
p3407
(lp3408
I1703
aI3
asVprime
p3409
(lp3410
I1704
aI12
asVregarding
p3411
(lp3412
I1705
aI3
asVAlliance
p3413
(lp3414
I1706
aI7
asVCohn
p3415
(lp3416
I1707
aI4
asVconsist
p3417
(lp3418
I1708
aI4
asVDominion
p3419
(lp3420
I1709
aI3
asVMorbelli
p3421
(lp3422
I1710
aI3
asVyield
p3423
(lp3424
I1711
aI17
asVmorning
p3425
(lp3426
I1712
aI19
asVsum
p3427
(lp3428
I1713
aI8
asVmiles
p3429
(lp3430
I1714
aI7
asVpredicted
p3431
(lp3432
I1715
aI13
asVBenetton
p3433
(lp3434
I1716
aI6
asVdiscussing
p3435
(lp3436
I1717
aI5
asVworrying
p3437
(lp3438
I1718
aI3
asVCoastal
p3439
(lp3440
I1719
aI4
asVdeclared
p3441
(lp3442
I1720
aI20
asVBoeing
p3443
(lp3444
I1721
aI17
asVDomestic
p3445
(lp3446
I1722
aI8
asVcommitted
p3447
(lp3448
I1723
aI5
asVWPPSS
p3449
(lp3450
I1724
aI9
asVcomparable
p3451
(lp3452
I1725
aI5
asVseat
p3453
(lp3454
I1726
aI7
asVrelative
p3455
(lp3456
I1727
aI4
asVelected
p3457
(lp3458
I1728
aI6
asVactively
p3459
(lp3460
I1729
aI5
asVWhakatane
p3461
(lp3462
I1730
aI5
asVflatly
p3463
(lp3464
I1731
aI3
asVcalendar
p3465
(lp3466
I1732
aI45
asVconcern
p3467
(lp3468
I1733
aI11
asV833
p3469
(lp3470
I1734
aI4
asVretire
p3471
(lp3472
I1735
aI4
asVIowa
p3473
(lp3474
I1736
aI3
asVrumours
p3475
(lp3476
I1737
aI3
asVmortgage
p3477
(lp3478
I1738
aI11
asVThat
p3479
(lp3480
I1739
aI14
asVfederal
p3481
(lp3482
I1740
aI27
asVnewspapers
p3483
(lp3484
I1741
aI8
asVreview
p3485
(lp3486
I1742
aI29
asVopening
p3487
(lp3488
I1743
aI5
asVrepresentatives
p3489
(lp3490
I1744
aI15
asVforecast
p3491
(lp3492
I1745
aI50
asV3
p3493
(lp3494
I1746
aI305
asVLDP
p3495
(lp3496
I1747
aI7
asVbureau
p3497
(lp3498
I1748
aI4
asVJr
p3499
(lp3500
I1749
aI4
asVaffecting
p3501
(lp3502
I1750
aI4
asVimport
p3503
(lp3504
I1751
aI21
asVThai
p3505
(lp3506
I1752
aI7
asVMitsubishi
p3507
(lp3508
I1753
aI3
asVNPPC
p3509
(lp3510
I1754
aI3
asVnotice
p3511
(lp3512
I1755
aI3
asVjobs
p3513
(lp3514
I1756
aI10
asVJohnson
p3515
(lp3516
I1757
aI7
asVOats
p3517
(lp3518
I1758
aI5
asV33
p3519
(lp3520
I1759
aI17
asVAcquisition
p3521
(lp3522
I1760
aI9
asVflow
p3523
(lp3524
I1761
aI11
asVDemocrat
p3525
(lp3526
I1762
aI4
asVSecurities
p3527
(lp3528
I1763
aI60
asVoffices
p3529
(lp3530
I1764
aI6
asVFull
p3531
(lp3532
I1765
aI3
asVFOB
p3533
(lp3534
I1766
aI4
asVEach
p3535
(lp3536
I1767
aI4
asVjets
p3537
(lp3538
I1768
aI3
asV20
p3539
(lp3540
I1769
aI103
asVcities
p3541
(lp3542
I1770
aI7
asVcome
p3543
(lp3544
I1771
aI21
asV1987
p3545
(lp3546
I1772
aI181
asVundermine
p3547
(lp3548
I1773
aI6
asV785
p3549
(lp3550
I1774
aI3
asVinstallation
p3551
(lp3552
I1775
aI4
asVpests
p3553
(lp3554
I1776
aI3
asVtrader
p3555
(lp3556
I1777
aI8
asVtrades
p3557
(lp3558
I1778
aI7
asVaccording
p3559
(lp3560
I1779
aI35
asVcontract
p3561
(lp3562
I1780
aI60
asVcalled
p3563
(lp3564
I1781
aI44
asVdeduction
p3565
(lp3566
I1782
aI3
asVMalaysia
p3567
(lp3568
I1783
aI5
asVs
p3569
(lp3570
I1784
aI991
asVWhipple
p3571
(lp3572
I1785
aI3
asVreluctantly
p3573
(lp3574
I1786
aI3
asVsenator
p3575
(lp3576
I1787
aI4
asVholders
p3577
(lp3578
I1788
aI23
asVtraded
p3579
(lp3580
I1789
aI27
asVOffered
p3581
(lp3582
I1790
aI6
asVcomes
p3583
(lp3584
I1791
aI4
asVnearby
p3585
(lp3586
I1792
aI5
asVduty
p3587
(lp3588
I1793
aI10
asVnecessary
p3589
(lp3590
I1794
aI9
asVMortgage
p3591
(lp3592
I1795
aI6
asVpassenger
p3593
(lp3594
I1796
aI7
asVDelaware
p3595
(lp3596
I1797
aI3
asVcolony
p3597
(lp3598
I1798
aI3
asVSachs
p3599
(lp3600
I1799
aI5
asVexpectations
p3601
(lp3602
I1800
aI8
asVNote
p3603
(lp3604
I1801
aI7
asV61
p3605
(lp3606
I1802
aI18
asV62
p3607
(lp3608
I1803
aI9
asVgrants
p3609
(lp3610
I1804
aI3
asVanti
p3611
(lp3612
I1805
aI11
asVconfirm
p3613
(lp3614
I1806
aI3
asV66
p3615
(lp3616
I1807
aI12
asVHazleton
p3617
(lp3618
I1808
aI4
asV68
p3619
(lp3620
I1809
aI17
asVproved
p3621
(lp3622
I1810
aI4
asVpoll
p3623
(lp3624
I1811
aI16
asVconsidering
p3625
(lp3626
I1812
aI17
asVdestroyed
p3627
(lp3628
I1813
aI4
asVElectric
p3629
(lp3630
I1814
aI22
asVstripped
p3631
(lp3632
I1815
aI3
asVcertify
p3633
(lp3634
I1816
aI5
asVPaid
p3635
(lp3636
I1817
aI11
asVmark
p3637
(lp3638
I1818
aI11
asVTate
p3639
(lp3640
I1819
aI3
asVproduction
p3641
(lp3642
I1820
aI104
asVdeposited
p3643
(lp3644
I1821
aI3
asVLynch
p3645
(lp3646
I1822
aI20
asVNuclear
p3647
(lp3648
I1823
aI7
asV500
p3649
(lp3650
I1824
aI76
asVsystems
p3651
(lp3652
I1825
aI29
asVwants
p3653
(lp3654
I1826
aI19
asVBankAmerica
p3655
(lp3656
I1827
aI28
asVdirection
p3657
(lp3658
I1828
aI5
asVenable
p3659
(lp3660
I1829
aI7
asVtransportation
p3661
(lp3662
I1830
aI3
asVreaction
p3663
(lp3664
I1831
aI8
asVoffered
p3665
(lp3666
I1832
aI35
asVformed
p3667
(lp3668
I1833
aI13
asVexporting
p3669
(lp3670
I1834
aI3
asVlanguage
p3671
(lp3672
I1835
aI7
asVtightened
p3673
(lp3674
I1836
aI3
asVAnalysts
p3675
(lp3676
I1837
aI22
asVacquiring
p3677
(lp3678
I1838
aI3
asVBarbara
p3679
(lp3680
I1839
aI4
asVactions
p3681
(lp3682
I1840
aI10
asVpaying
p3683
(lp3684
I1841
aI19
asVGoodrich
p3685
(lp3686
I1842
aI5
asVKenneth
p3687
(lp3688
I1843
aI4
asVdeveloping
p3689
(lp3690
I1844
aI7
asVDesjardins
p3691
(lp3692
I1845
aI3
asVReagan
p3693
(lp3694
I1846
aI61
asVsingle
p3695
(lp3696
I1847
aI17
asVNarjes
p3697
(lp3698
I1848
aI3
asVlire
p3699
(lp3700
I1849
aI5
asVpolicies
p3701
(lp3702
I1850
aI14
asVnewspaper
p3703
(lp3704
I1851
aI17
asVsituation
p3705
(lp3706
I1852
aI18
asVmargin
p3707
(lp3708
I1853
aI10
asVtaking
p3709
(lp3710
I1854
aI14
asVexercisable
p3711
(lp3712
I1855
aI5
asVoperate
p3713
(lp3714
I1856
aI12
asValuminium
p3715
(lp3716
I1857
aI9
asVindependent
p3717
(lp3718
I1858
aI10
asVeventually
p3719
(lp3720
I1859
aI4
asVToshin
p3721
(lp3722
I1860
aI3
asVsecondary
p3723
(lp3724
I1861
aI9
asVDonohue
p3725
(lp3726
I1862
aI5
asVtelephone
p3727
(lp3728
I1863
aI9
asVContraves
p3729
(lp3730
I1864
aI4
asVequal
p3731
(lp3732
I1865
aI19
asVrefinery
p3733
(lp3734
I1866
aI7
asVpressing
p3735
(lp3736
I1867
aI3
asVattributed
p3737
(lp3738
I1868
aI3
asVchairmen
p3739
(lp3740
I1869
aI5
asVLarry
p3741
(lp3742
I1870
aI3
asVactivity
p3743
(lp3744
I1871
aI18
asVtechnology
p3745
(lp3746
I1872
aI24
asVfloating
p3747
(lp3748
I1873
aI12
asVmovements
p3749
(lp3750
I1874
aI5
asVbags
p3751
(lp3752
I1875
aI16
asVexpenditures
p3753
(lp3754
I1876
aI8
asVmissiles
p3755
(lp3756
I1877
aI3
asVdevelop
p3757
(lp3758
I1878
aI8
asVindebtedness
p3759
(lp3760
I1879
aI4
asVpay
p3761
(lp3762
I1880
aI37
asVgranted
p3763
(lp3764
I1881
aI11
asVtour
p3765
(lp3766
I1882
aI4
asVTonka
p3767
(lp3768
I1883
aI3
asVdealer
p3769
(lp3770
I1884
aI11
asVcompiling
p3771
(lp3772
I1885
aI3
asVinquiry
p3773
(lp3774
I1886
aI6
asVWhen
p3775
(lp3776
I1887
aI5
asVweakness
p3777
(lp3778
I1888
aI9
asVCraxi
p3779
(lp3780
I1889
aI4
asVstatus
p3781
(lp3782
I1890
aI9
asVfinish
p3783
(lp3784
I1891
aI3
asVedged
p3785
(lp3786
I1892
aI3
asVCommodity
p3787
(lp3788
I1893
aI9
asVI
p3789
(lp3790
I1894
aI78
asVboosted
p3791
(lp3792
I1895
aI3
asVFunaro
p3793
(lp3794
I1896
aI58
asVII
p3795
(lp3796
I1897
aI14
asVpersons
p3797
(lp3798
I1898
aI3
asVdiversion
p3799
(lp3800
I1899
aI3
asVCenergy
p3801
(lp3802
I1900
aI5
asVBanks
p3803
(lp3804
I1901
aI18
asVchanging
p3805
(lp3806
I1902
aI6
asVIC
p3807
(lp3808
I1903
aI7
asVBay
p3809
(lp3810
I1904
aI5
asVtotally
p3811
(lp3812
I1905
aI4
asVreference
p3813
(lp3814
I1906
aI5
asVcomplained
p3815
(lp3816
I1907
aI4
asVPork
p3817
(lp3818
I1908
aI3
asVdrain
p3819
(lp3820
I1909
aI5
asVlargely
p3821
(lp3822
I1910
aI6
asVcharges
p3823
(lp3824
I1911
aI8
asVIs
p3825
(lp3826
I1912
aI5
asVvacant
p3827
(lp3828
I1913
aI3
asVMotors
p3829
(lp3830
I1914
aI12
asVcustomized
p3831
(lp3832
I1915
aI10
asVInvestment
p3833
(lp3834
I1916
aI13
asVmortgages
p3835
(lp3836
I1917
aI3
asVauthoritative
p3837
(lp3838
I1918
aI3
asVsevere
p3839
(lp3840
I1919
aI6
asVcosts
p3841
(lp3842
I1920
aI40
asVcomponents
p3843
(lp3844
I1921
aI8
asV950
p3845
(lp3846
I1922
aI4
asVwholesale
p3847
(lp3848
I1923
aI8
asVeasing
p3849
(lp3850
I1924
aI3
asVmodel
p3851
(lp3852
I1925
aI6
asVbodies
p3853
(lp3854
I1926
aI3
asVcharged
p3855
(lp3856
I1927
aI10
asVgdp
p3857
(lp3858
I1928
aI3
asVsummer
p3859
(lp3860
I1929
aI10
asVUnited
p3861
(lp3862
I1930
aI56
asV210
p3863
(lp3864
I1931
aI3
asVmoney
p3865
(lp3866
I1932
aI66
asVadjustments
p3867
(lp3868
I1933
aI4
asVrest
p3869
(lp3870
I1934
aI8
asVDaniel
p3871
(lp3872
I1935
aI8
asVIMF
p3873
(lp3874
I1936
aI28
asVLiang
p3875
(lp3876
I1937
aI3
asVounces
p3877
(lp3878
I1938
aI7
asVtouch
p3879
(lp3880
I1939
aI3
asVMinstar
p3881
(lp3882
I1940
aI5
asVMarkets
p3883
(lp3884
I1941
aI11
asVweekly
p3885
(lp3886
I1942
aI15
asVSterling
p3887
(lp3888
I1943
aI4
asVProvidentia
p3889
(lp3890
I1944
aI3
asVrenewed
p3891
(lp3892
I1945
aI7
asVOccidental
p3893
(lp3894
I1946
aI6
asVrepresented
p3895
(lp3896
I1947
aI9
asVFDIC
p3897
(lp3898
I1948
aI5
asVrose
p3899
(lp3900
I1949
aI115
asVSpot
p3901
(lp3902
I1950
aI4
asVMac
p3903
(lp3904
I1951
aI14
asVimprovement
p3905
(lp3906
I1952
aI12
asVsetting
p3907
(lp3908
I1953
aI8
asVtreatment
p3909
(lp3910
I1954
aI8
asVAlthough
p3911
(lp3912
I1955
aI10
asVeye
p3913
(lp3914
I1956
aI5
asVMae
p3915
(lp3916
I1957
aI3
asVstruck
p3917
(lp3918
I1958
aI3
asVcompetitiveness
p3919
(lp3920
I1959
aI4
asVmomentum
p3921
(lp3922
I1960
aI3
asVreal
p3923
(lp3924
I1961
aI19
asVaspects
p3925
(lp3926
I1962
aI3
asVeasily
p3927
(lp3928
I1963
aI6
asVrules
p3929
(lp3930
I1964
aI15
asVIsland
p3931
(lp3932
I1965
aI6
asVDecember
p3933
(lp3934
I1966
aI155
asVCronus
p3935
(lp3936
I1967
aI3
asVperiod
p3937
(lp3938
I1968
aI66
asVearly
p3939
(lp3940
I1969
aI40
asVMicro
p3941
(lp3942
I1970
aI5
asVinflation
p3943
(lp3944
I1971
aI38
asVtraffic
p3945
(lp3946
I1972
aI5
asVworld
p3947
(lp3948
I1973
aI63
asVunderwriting
p3949
(lp3950
I1974
aI23
asVaccepted
p3951
(lp3952
I1975
aI9
asVdiv
p3953
(lp3954
I1976
aI7
asVengineers
p3955
(lp3956
I1977
aI3
asVruled
p3957
(lp3958
I1978
aI9
asV60
p3959
(lp3960
I1979
aI31
asVprompted
p3961
(lp3962
I1980
aI4
asVpounds
p3963
(lp3964
I1981
aI4
asVcollective
p3965
(lp3966
I1982
aI3
asVShare
p3967
(lp3968
I1983
aI3
asVrivals
p3969
(lp3970
I1984
aI3
asVannually
p3971
(lp3972
I1985
aI14
asVbenefit
p3973
(lp3974
I1986
aI12
asV63
p3975
(lp3976
I1987
aI14
asVLondon
p3977
(lp3978
I1988
aI36
asVt
p3979
(lp3980
I1989
aI42
asVFourtou
p3981
(lp3982
I1990
aI3
asVoutput
p3983
(lp3984
I1991
aI50
asVdilution
p3985
(lp3986
I1992
aI3
asVTA
p3987
(lp3988
I1993
aI3
asVreform
p3989
(lp3990
I1994
aI23
asVMatsushita
p3991
(lp3992
I1995
aI3
asVsharp
p3993
(lp3994
I1996
aI12
asVsatisfactory
p3995
(lp3996
I1997
aI5
asVEntertainment
p3997
(lp3998
I1998
aI8
asVTexaco
p3999
(lp4000
I1999
aI3
asVIndia
p4001
(lp4002
I2000
aI8
asV67
p4003
(lp4004
I2001
aI7
asVcompetition
p4005
(lp4006
I2002
aI8
asVMurgold
p4007
(lp4008
I2003
aI4
asVAB
p4009
(lp4010
I2004
aI9
asVPCGG
p4011
(lp4012
I2005
aI5
asVintend
p4013
(lp4014
I2006
aI6
asVNet
p4015
(lp4016
I2007
aI37
asVnarrowed
p4017
(lp4018
I2008
aI3
asVVDO
p4019
(lp4020
I2009
aI3
asVStearns
p4021
(lp4022
I2010
aI3
asVgross
p4023
(lp4024
I2011
aI8
asVHoliday
p4025
(lp4026
I2012
aI4
asVkwacha
p4027
(lp4028
I2013
aI3
asVGovernment
p4029
(lp4030
I2014
aI25
asVoperators
p4031
(lp4032
I2015
aI6
asVnoon
p4033
(lp4034
I2016
aI3
asVEarlier
p4035
(lp4036
I2017
aI7
asVrecorded
p4037
(lp4038
I2018
aI6
asVlegal
p4039
(lp4040
I2019
aI4
asVwithdrawn
p4041
(lp4042
I2020
aI3
asVvoice
p4043
(lp4044
I2021
aI3
asVcritical
p4045
(lp4046
I2022
aI7
asVexit
p4047
(lp4048
I2023
aI3
asVdeficit
p4049
(lp4050
I2024
aI47
asVprovides
p4051
(lp4052
I2025
aI11
asVallowing
p4053
(lp4054
I2026
aI6
asVmoderate
p4055
(lp4056
I2027
aI11
asV911
p4057
(lp4058
I2028
aI6
asVpayable
p4059
(lp4060
I2029
aI25
asVDaimler
p4061
(lp4062
I2030
aI5
asVmeasuring
p4063
(lp4064
I2031
aI5
asVfelt
p4065
(lp4066
I2032
aI4
asVassembly
p4067
(lp4068
I2033
aI6
asVCouncil
p4069
(lp4070
I2034
aI13
asVpower
p4071
(lp4072
I2035
aI31
asVTurbo
p4073
(lp4074
I2036
aI5
asVsixth
p4075
(lp4076
I2037
aI4
asVequivalent
p4077
(lp4078
I2038
aI6
asVTRE
p4079
(lp4080
I2039
aI10
asVbroker
p4081
(lp4082
I2040
aI13
asVcredits
p4083
(lp4084
I2041
aI15
asVleadership
p4085
(lp4086
I2042
aI3
asVOlin
p4087
(lp4088
I2043
aI3
asVresign
p4089
(lp4090
I2044
aI7
asVshrs
p4091
(lp4092
I2045
aI14
asVLacy
p4093
(lp4094
I2046
aI7
asVMontagu
p4095
(lp4096
I2047
aI5
asVHusky
p4097
(lp4098
I2048
aI7
asVprepared
p4099
(lp4100
I2049
aI13
asVcurrencies
p4101
(lp4102
I2050
aI9
asVmanufactures
p4103
(lp4104
I2051
aI7
asVmanufacturer
p4105
(lp4106
I2052
aI5
asVcomparison
p4107
(lp4108
I2053
aI7
asVsubdued
p4109
(lp4110
I2054
aI3
asVcentral
p4111
(lp4112
I2055
aI28
asVpackage
p4113
(lp4114
I2056
aI24
asVAgriculture
p4115
(lp4116
I2057
aI25
asVindustry
p4117
(lp4118
I2058
aI84
asVdiscussed
p4119
(lp4120
I2059
aI9
asVTrade
p4121
(lp4122
I2060
aI16
asVtremendous
p4123
(lp4124
I2061
aI3
asVPaper
p4125
(lp4126
I2062
aI3
asVairline
p4127
(lp4128
I2063
aI11
asVact
p4129
(lp4130
I2064
aI11
asVinvested
p4131
(lp4132
I2065
aI4
asVtariffs
p4133
(lp4134
I2066
aI5
asV376
p4135
(lp4136
I2067
aI3
asVprovisional
p4137
(lp4138
I2068
aI6
asVroad
p4139
(lp4140
I2069
aI4
asVrapeseed
p4141
(lp4142
I2070
aI3
asVfreeing
p4143
(lp4144
I2071
aI3
asVoutlook
p4145
(lp4146
I2072
aI14
asVprotests
p4147
(lp4148
I2073
aI3
asVdecreased
p4149
(lp4150
I2074
aI3
asVNo
p4151
(lp4152
I2075
aI20
asVcoupon
p4153
(lp4154
I2076
aI36
asVinstruments
p4155
(lp4156
I2077
aI11
asVflight
p4157
(lp4158
I2078
aI6
asVcopies
p4159
(lp4160
I2079
aI3
asVaccounts
p4161
(lp4162
I2080
aI11
asVBut
p4163
(lp4164
I2081
aI132
asVshipbuilding
p4165
(lp4166
I2082
aI3
asVparties
p4167
(lp4168
I2083
aI9
asVspeculated
p4169
(lp4170
I2084
aI6
asVtechnically
p4171
(lp4172
I2085
aI3
asVpharmaceutical
p4173
(lp4174
I2086
aI9
asVEvergo
p4175
(lp4176
I2087
aI12
asVarea
p4177
(lp4178
I2088
aI23
asVNA
p4179
(lp4180
I2089
aI3
asVHotel
p4181
(lp4182
I2090
aI7
asValleged
p4183
(lp4184
I2091
aI7
asVSabah
p4185
(lp4186
I2092
aI3
asVstart
p4187
(lp4188
I2093
aI23
asVTylan
p4189
(lp4190
I2094
aI3
asVlow
p4191
(lp4192
I2095
aI34
asVlot
p4193
(lp4194
I2096
aI8
asVdumping
p4195
(lp4196
I2097
aI4
asVexceptional
p4197
(lp4198
I2098
aI3
asVNV
p4199
(lp4200
I2099
aI6
asVintends
p4201
(lp4202
I2100
aI3
asVPipeline
p4203
(lp4204
I2101
aI5
asVNZFE
p4205
(lp4206
I2102
aI4
asVcomplete
p4207
(lp4208
I2103
aI9
asVJ
p4209
(lp4210
I2104
aI17
asVdelayed
p4211
(lp4212
I2105
aI8
asVstrikes
p4213
(lp4214
I2106
aI5
asVcabinet
p4215
(lp4216
I2107
aI6
asVindicators
p4217
(lp4218
I2108
aI10
asVended
p4219
(lp4220
I2109
aI57
asVelimination
p4221
(lp4222
I2110
aI3
asVLight
p4223
(lp4224
I2111
aI4
asVtrying
p4225
(lp4226
I2112
aI15
asVbuying
p4227
(lp4228
I2113
aI28
asVfaster
p4229
(lp4230
I2114
aI10
asVcard
p4231
(lp4232
I2115
aI10
asVhire
p4233
(lp4234
I2116
aI3
asVfraud
p4235
(lp4236
I2117
aI4
asVarranged
p4237
(lp4238
I2118
aI5
asVcirculation
p4239
(lp4240
I2119
aI5
asVdefault
p4241
(lp4242
I2120
aI6
asVHouse
p4243
(lp4244
I2121
aI44
asVLong
p4245
(lp4246
I2122
aI7
asVSaito
p4247
(lp4248
I2123
aI4
asVJoseph
p4249
(lp4250
I2124
aI3
asVpolitically
p4251
(lp4252
I2125
aI3
asVagree
p4253
(lp4254
I2126
aI14
asVdetailed
p4255
(lp4256
I2127
aI4
asVgone
p4257
(lp4258
I2128
aI5
asVrequired
p4259
(lp4260
I2129
aI16
asV600
p4261
(lp4262
I2130
aI25
asVUSA
p4263
(lp4264
I2131
aI3
asVFarmers
p4265
(lp4266
I2132
aI3
asVdip
p4267
(lp4268
I2133
aI5
asVcertain
p4269
(lp4270
I2134
aI30
asVmoved
p4271
(lp4272
I2135
aI3
asV1200
p4273
(lp4274
I2136
aI3
asVThursday
p4275
(lp4276
I2137
aI25
asVgeneral
p4277
(lp4278
I2138
aI32
asVaftershocks
p4279
(lp4280
I2139
aI3
asVProduction
p4281
(lp4282
I2140
aI5
asVLast
p4283
(lp4284
I2141
aI24
asVfile
p4285
(lp4286
I2142
aI5
asVimporting
p4287
(lp4288
I2143
aI4
asVcontrolled
p4289
(lp4290
I2144
aI13
asVmoves
p4291
(lp4292
I2145
aI10
asVinspections
p4293
(lp4294
I2146
aI3
asVfilm
p4295
(lp4296
I2147
aI3
asVUSX
p4297
(lp4298
I2148
aI4
asVReal
p4299
(lp4300
I2149
aI5
asVNOTE
p4301
(lp4302
I2150
aI20
asVLai
p4303
(lp4304
I2151
aI6
asVpiracy
p4305
(lp4306
I2152
aI3
asVpersonnel
p4307
(lp4308
I2153
aI5
asVstorage
p4309
(lp4310
I2154
aI7
asVSecond
p4311
(lp4312
I2155
aI3
asVabolish
p4313
(lp4314
I2156
aI3
asVrubber
p4315
(lp4316
I2157
aI9
asVtight
p4317
(lp4318
I2158
aI5
asVTandem
p4319
(lp4320
I2159
aI4
asVAtlantic
p4321
(lp4322
I2160
aI3
asVLau
p4323
(lp4324
I2161
aI4
asVMore
p4325
(lp4326
I2162
aI7
asVsufficient
p4327
(lp4328
I2163
aI7
asVAsian
p4329
(lp4330
I2164
aI3
asVpoor
p4331
(lp4332
I2165
aI10
asVrequested
p4333
(lp4334
I2166
aI7
asVICI
p4335
(lp4336
I2167
aI16
asVICO
p4337
(lp4338
I2168
aI23
asVrespected
p4339
(lp4340
I2169
aI3
asV78
p4341
(lp4342
I2170
aI10
asVseparate
p4343
(lp4344
I2171
aI13
asVsymbol
p4345
(lp4346
I2172
aI3
asVreached
p4347
(lp4348
I2173
aI21
asVdisclosed
p4349
(lp4350
I2174
aI16
asVincludes
p4351
(lp4352
I2175
aI31
asVimportant
p4353
(lp4354
I2176
aI10
asVEstates
p4355
(lp4356
I2177
aI3
asVfailures
p4357
(lp4358
I2178
aI4
asVcasualties
p4359
(lp4360
I2179
aI3
asVfunding
p4361
(lp4362
I2180
aI3
asVbrass
p4363
(lp4364
I2181
aI3
asVstocks
p4365
(lp4366
I2182
aI32
asVpool
p4367
(lp4368
I2183
aI6
asVfiscal
p4369
(lp4370
I2184
aI36
asVassets
p4371
(lp4372
I2185
aI29
asVcalls
p4373
(lp4374
I2186
aI11
asVCredit
p4375
(lp4376
I2187
aI24
asVroasters
p4377
(lp4378
I2188
aI5
asVodds
p4379
(lp4380
I2189
aI3
asVExecutive
p4381
(lp4382
I2190
aI3
asVtelex
p4383
(lp4384
I2191
aI10
asVrepay
p4385
(lp4386
I2192
aI10
asVStreet
p4387
(lp4388
I2193
aI20
asVmass
p4389
(lp4390
I2194
aI3
asVprofits
p4391
(lp4392
I2195
aI34
asVSoybean
p4393
(lp4394
I2196
aI10
asVYear
p4395
(lp4396
I2197
aI19
asVshortfall
p4397
(lp4398
I2198
aI9
asVoverseas
p4399
(lp4400
I2199
aI8
asV12
p4401
(lp4402
I2200
aI91
asVstarting
p4403
(lp4404
I2201
aI19
asVoriginal
p4405
(lp4406
I2202
aI8
asVrefused
p4407
(lp4408
I2203
aI8
asVexternal
p4409
(lp4410
I2204
aI9
asVCanada
p4411
(lp4412
I2205
aI38
asVrepresent
p4413
(lp4414
I2206
aI5
asVconsider
p4415
(lp4416
I2207
aI15
asVcaused
p4417
(lp4418
I2208
aI17
asVWorkers
p4419
(lp4420
I2209
aI4
asVlack
p4421
(lp4422
I2210
aI8
asVJWT
p4423
(lp4424
I2211
aI4
asVmonth
p4425
(lp4426
I2212
aI127
asVdeadline
p4427
(lp4428
I2213
aI10
asVRobeson
p4429
(lp4430
I2214
aI4
asVShultz
p4431
(lp4432
I2215
aI16
asVsmoking
p4433
(lp4434
I2216
aI3
asVtalks
p4435
(lp4436
I2217
aI96
asVfollow
p4437
(lp4438
I2218
aI10
asVsettlement
p4439
(lp4440
I2219
aI8
asVdecisions
p4441
(lp4442
I2220
aI4
asVEST
p4443
(lp4444
I2221
aI8
asVreluctant
p4445
(lp4446
I2222
aI4
asVBrown
p4447
(lp4448
I2223
aI8
asVrights
p4449
(lp4450
I2224
aI25
asVreferring
p4451
(lp4452
I2225
aI5
asVpledged
p4453
(lp4454
I2226
aI3
asVlaid
p4455
(lp4456
I2227
aI4
asVopportunities
p4457
(lp4458
I2228
aI4
asVprogram
p4459
(lp4460
I2229
aI66
asVdairy
p4461
(lp4462
I2230
aI3
asVATPC
p4463
(lp4464
I2231
aI23
asVhealth
p4465
(lp4466
I2232
aI12
asVNAPM
p4467
(lp4468
I2233
aI11
asVpresentation
p4469
(lp4470
I2234
aI3
asVcase
p4471
(lp4472
I2235
aI17
asVJim
p4473
(lp4474
I2236
aI4
asVappointment
p4475
(lp4476
I2237
aI7
asVworse
p4477
(lp4478
I2238
aI4
asVfar
p4479
(lp4480
I2239
aI21
asVmulti
p4481
(lp4482
I2240
aI6
asVfat
p4483
(lp4484
I2241
aI7
asVresistance
p4485
(lp4486
I2242
aI4
asVradio
p4487
(lp4488
I2243
aI3
asVworst
p4489
(lp4490
I2244
aI7
asVdecide
p4491
(lp4492
I2245
aI8
asVsurprise
p4493
(lp4494
I2246
aI4
asVausterity
p4495
(lp4496
I2247
aI4
asVnewly
p4497
(lp4498
I2248
aI8
asVcondition
p4499
(lp4500
I2249
aI6
asVmotor
p4501
(lp4502
I2250
aI3
asVcable
p4503
(lp4504
I2251
aI5
asVKhalifa
p4505
(lp4506
I2252
aI4
asVstrategist
p4507
(lp4508
I2253
aI5
asVlist
p4509
(lp4510
I2254
aI9
asVjoined
p4511
(lp4512
I2255
aI4
asVbrewery
p4513
(lp4514
I2256
aI3
asVlarge
p4515
(lp4516
I2257
aI48
asVcircuit
p4517
(lp4518
I2258
aI4
asVsmall
p4519
(lp4520
I2259
aI24
asVeconomically
p4521
(lp4522
I2260
aI5
asVprogramme
p4523
(lp4524
I2261
aI6
asVowned
p4525
(lp4526
I2262
aI51
asV198
p4527
(lp4528
I2263
aI3
asV195
p4529
(lp4530
I2264
aI3
asVtea
p4531
(lp4532
I2265
aI7
asVstreets
p4533
(lp4534
I2266
aI3
asV191
p4535
(lp4536
I2267
aI3
asV190
p4537
(lp4538
I2268
aI4
asV193
p4539
(lp4540
I2269
aI4
asVcash
p4541
(lp4542
I2270
aI85
asVpast
p4543
(lp4544
I2271
aI37
asVGlaxo
p4545
(lp4546
I2272
aI3
asVnegotiator
p4547
(lp4548
I2273
aI4
asVdesign
p4549
(lp4550
I2274
aI9
asVenhancement
p4551
(lp4552
I2275
aI4
asVInterest
p4553
(lp4554
I2276
aI6
asVEast
p4555
(lp4556
I2277
aI3
asVstand
p4557
(lp4558
I2278
aI6
asVinvestment
p4559
(lp4560
I2279
aI66
asVLatin
p4561
(lp4562
I2280
aI3
asVstood
p4563
(lp4564
I2281
aI4
asVcombined
p4565
(lp4566
I2282
aI27
asVconsumers
p4567
(lp4568
I2283
aI14
asVOpec
p4569
(lp4570
I2284
aI18
asVinvesting
p4571
(lp4572
I2285
aI3
asVdeeply
p4573
(lp4574
I2286
aI3
asVsection
p4575
(lp4576
I2287
aI3
asVParibas
p4577
(lp4578
I2288
aI4
asVbrief
p4579
(lp4580
I2289
aI6
asVcrush
p4581
(lp4582
I2290
aI8
asVpublic
p4583
(lp4584
I2291
aI52
asVversion
p4585
(lp4586
I2292
aI5
asVConservatives
p4587
(lp4588
I2293
aI8
asVcertificates
p4589
(lp4590
I2294
aI36
asVmethod
p4591
(lp4592
I2295
aI8
asVmovement
p4593
(lp4594
I2296
aI4
asVDodge
p4595
(lp4596
I2297
aI5
asVestate
p4597
(lp4598
I2298
aI9
asVWuerttemberg
p4599
(lp4600
I2299
aI3
asVK
p4601
(lp4602
I2300
aI40
asVdepreciation
p4603
(lp4604
I2301
aI8
asVmodify
p4605
(lp4606
I2302
aI3
asVhours
p4607
(lp4608
I2303
aI11
asVfavourable
p4609
(lp4610
I2304
aI4
asVred
p4611
(lp4612
I2305
aI6
asVinverse
p4613
(lp4614
I2306
aI6
asVoperating
p4615
(lp4616
I2307
aI41
asVexcess
p4617
(lp4618
I2308
aI13
asVtreasury
p4619
(lp4620
I2309
aI11
asVstrong
p4621
(lp4622
I2310
aI24
asVrespect
p4623
(lp4624
I2311
aI5
asVTaiwan
p4625
(lp4626
I2312
aI33
asVService
p4627
(lp4628
I2313
aI9
asV900
p4629
(lp4630
I2314
aI18
asVPepsiCo
p4631
(lp4632
I2315
aI4
asVahead
p4633
(lp4634
I2316
aI15
asVZurich
p4635
(lp4636
I2317
aI4
asV420
p4637
(lp4638
I2318
aI4
asVcompliance
p4639
(lp4640
I2319
aI3
asVallows
p4641
(lp4642
I2320
aI6
asVterminals
p4643
(lp4644
I2321
aI4
asVexperience
p4645
(lp4646
I2322
aI10
asVsignificantly
p4647
(lp4648
I2323
aI4
asVprior
p4649
(lp4650
I2324
aI17
asVairport
p4651
(lp4652
I2325
aI3
asVbase
p4653
(lp4654
I2326
aI25
asVbreakdown
p4655
(lp4656
I2327
aI4
asVMotor
p4657
(lp4658
I2328
aI10
asVpick
p4659
(lp4660
I2329
aI3
asVaction
p4661
(lp4662
I2330
aI19
asVformation
p4663
(lp4664
I2331
aI4
asVnarrow
p4665
(lp4666
I2332
aI6
asVAlcan
p4667
(lp4668
I2333
aI4
asVpoint
p4669
(lp4670
I2334
aI36
asVsticking
p4671
(lp4672
I2335
aI3
asVfollowed
p4673
(lp4674
I2336
aI11
asVmembers
p4675
(lp4676
I2337
aI51
asVAug
p4677
(lp4678
I2338
aI4
asVReform
p4679
(lp4680
I2339
aI3
asVrequiring
p4681
(lp4682
I2340
aI6
asVscreens
p4683
(lp4684
I2341
aI7
asVtendered
p4685
(lp4686
I2342
aI8
asVaimed
p4687
(lp4688
I2343
aI15
asVNigeria
p4689
(lp4690
I2344
aI15
asVStandard
p4691
(lp4692
I2345
aI21
asVestablish
p4693
(lp4694
I2346
aI3
asVfiles
p4695
(lp4696
I2347
aI3
asVreadily
p4697
(lp4698
I2348
aI3
asVEurope
p4699
(lp4700
I2349
aI29
asVenvironment
p4701
(lp4702
I2350
aI3
asVconventional
p4703
(lp4704
I2351
aI4
asV850
p4705
(lp4706
I2352
aI5
asVtakes
p4707
(lp4708
I2353
aI5
asVcontains
p4709
(lp4710
I2354
aI4
asVpetroleum
p4711
(lp4712
I2355
aI9
asVInvestments
p4713
(lp4714
I2356
aI8
asVFCA
p4715
(lp4716
I2357
aI8
asVCorp
p4717
(lp4718
I2358
aI264
asVtrip
p4719
(lp4720
I2359
aI6
asV6
p4721
(lp4722
I2360
aI194
asVtaken
p4723
(lp4724
I2361
aI22
asVEgypt
p4725
(lp4726
I2362
aI5
asVauthorization
p4727
(lp4728
I2363
aI3
asVsecured
p4729
(lp4730
I2364
aI6
asVSy
p4731
(lp4732
I2365
aI7
asVdoor
p4733
(lp4734
I2366
aI3
asVIntel
p4735
(lp4736
I2367
aI6
asVTobacco
p4737
(lp4738
I2368
aI4
asVEl
p4739
(lp4740
I2369
aI3
asVdivision
p4741
(lp4742
I2370
aI29
asVcompany
p4743
(lp4744
I2371
aI397
asVenormous
p4745
(lp4746
I2372
aI3
asVSt
p4747
(lp4748
I2373
aI7
asVBanking
p4749
(lp4750
I2374
aI20
asVAmerican
p4751
(lp4752
I2375
aI116
asVstick
p4753
(lp4754
I2376
aI6
asVbroke
p4755
(lp4756
I2377
aI6
asVparticular
p4757
(lp4758
I2378
aI5
asVknown
p4759
(lp4760
I2379
aI14
asVbenefits
p4761
(lp4762
I2380
aI11
asVobjections
p4763
(lp4764
I2381
aI3
asVEuroclear
p4765
(lp4766
I2382
aI4
asVproducing
p4767
(lp4768
I2383
aI19
asVAtlanta
p4769
(lp4770
I2384
aI6
asVtown
p4771
(lp4772
I2385
aI3
asVhelped
p4773
(lp4774
I2386
aI6
asVkeeping
p4775
(lp4776
I2387
aI4
asVhour
p4777
(lp4778
I2388
aI7
asVdes
p4779
(lp4780
I2389
aI4
asVindustrialists
p4781
(lp4782
I2390
aI4
asVST
p4783
(lp4784
I2391
aI9
asVremain
p4785
(lp4786
I2392
aI30
asVarrangements
p4787
(lp4788
I2393
aI6
asVresources
p4789
(lp4790
I2394
aI4
asVSA
p4791
(lp4792
I2395
aI9
asVSE
p4793
(lp4794
I2396
aI11
asVInc
p4795
(lp4796
I2397
aI289
asVpurchases
p4797
(lp4798
I2398
aI14
asVCaspar
p4799
(lp4800
I2399
aI3
asVPaso
p4801
(lp4802
I2400
aI3
asV744
p4803
(lp4804
I2401
aI4
asVIBM
p4805
(lp4806
I2402
aI12
asVstated
p4807
(lp4808
I2403
aI3
asV48
p4809
(lp4810
I2404
aI14
asVfunctions
p4811
(lp4812
I2405
aI4
asVshare
p4813
(lp4814
I2406
aI195
asVaccept
p4815
(lp4816
I2407
aI16
asVstates
p4817
(lp4818
I2408
aI11
asVpushed
p4819
(lp4820
I2409
aI4
asVminimum
p4821
(lp4822
I2410
aI21
asVnumbers
p4823
(lp4824
I2411
aI4
asVpurchased
p4825
(lp4826
I2412
aI15
asVsense
p4827
(lp4828
I2413
aI3
asVCAC
p4829
(lp4830
I2414
aI5
asVexclude
p4831
(lp4832
I2415
aI3
asVCalif
p4833
(lp4834
I2416
aI8
asVUnilever
p4835
(lp4836
I2417
aI4
asVfirmly
p4837
(lp4838
I2418
aI3
asVhuge
p4839
(lp4840
I2419
aI10
asVneeds
p4841
(lp4842
I2420
aI18
asVParliament
p4843
(lp4844
I2421
aI3
asVcourt
p4845
(lp4846
I2422
aI7
asVFederation
p4847
(lp4848
I2423
aI7
asVsluggish
p4849
(lp4850
I2424
aI4
asVimminent
p4851
(lp4852
I2425
aI3
asVplans
p4853
(lp4854
I2426
aI72
asVarbitrageur
p4855
(lp4856
I2427
aI4
asVFalk
p4857
(lp4858
I2428
aI3
asVSales
p4859
(lp4860
I2429
aI15
asVEmbassy
p4861
(lp4862
I2430
aI15
asVstemming
p4863
(lp4864
I2431
aI5
asVearnings
p4865
(lp4866
I2432
aI60
asVreject
p4867
(lp4868
I2433
aI3
asVCaisse
p4869
(lp4870
I2434
aI8
asVtranches
p4871
(lp4872
I2435
aI4
asVHanover
p4873
(lp4874
I2436
aI3
asVplant
p4875
(lp4876
I2437
aI31
asVintended
p4877
(lp4878
I2438
aI15
asVExcelan
p4879
(lp4880
I2439
aI3
asVMarch
p4881
(lp4882
I2440
aI184
asV611
p4883
(lp4884
I2441
aI3
asVBankers
p4885
(lp4886
I2442
aI9
asVForeign
p4887
(lp4888
I2443
aI13
asVreflect
p4889
(lp4890
I2444
aI15
asVplane
p4891
(lp4892
I2445
aI4
asVEmirates
p4893
(lp4894
I2446
aI7
asVblood
p4895
(lp4896
I2447
aI3
asVcoming
p4897
(lp4898
I2448
aI13
asVSwiss
p4899
(lp4900
I2449
aI20
asVViacom
p4901
(lp4902
I2450
aI35
asVFerro
p4903
(lp4904
I2451
aI3
asVDow
p4905
(lp4906
I2452
aI10
asVacquisitions
p4907
(lp4908
I2453
aI22
asVthought
p4909
(lp4910
I2454
aI13
asVworkstation
p4911
(lp4912
I2455
aI4
asVshort
p4913
(lp4914
I2456
aI42
asVMexico
p4915
(lp4916
I2457
aI10
asVSweet
p4917
(lp4918
I2458
aI3
asVregister
p4919
(lp4920
I2459
aI3
asVovernight
p4921
(lp4922
I2460
aI6
asVcoal
p4923
(lp4924
I2461
aI5
asVJaime
p4925
(lp4926
I2462
aI7
asVDemocrats
p4927
(lp4928
I2463
aI7
asVbanks
p4929
(lp4930
I2464
aI172
asVMarathon
p4931
(lp4932
I2465
aI3
asVturnover
p4933
(lp4934
I2466
aI7
asVreplied
p4935
(lp4936
I2467
aI5
asVWhat
p4937
(lp4938
I2468
aI4
asVhelp
p4939
(lp4940
I2469
aI47
asVradios
p4941
(lp4942
I2470
aI3
asVMontedison
p4943
(lp4944
I2471
aI4
asVsoon
p4945
(lp4946
I2472
aI18
asVdefinitive
p4947
(lp4948
I2473
aI6
asVtrade
p4949
(lp4950
I2474
aI115
asVheld
p4951
(lp4952
I2475
aI44
asVattitude
p4953
(lp4954
I2476
aI10
asVpaper
p4955
(lp4956
I2477
aI45
asVcommittee
p4957
(lp4958
I2478
aI59
asVsigns
p4959
(lp4960
I2479
aI8
asVsuffer
p4961
(lp4962
I2480
aI6
asVOct
p4963
(lp4964
I2481
aI5
asVTexas
p4965
(lp4966
I2482
aI22
asVfeatures
p4967
(lp4968
I2483
aI4
asV24
p4969
(lp4970
I2484
aI42
asV25
p4971
(lp4972
I2485
aI112
asV26
p4973
(lp4974
I2486
aI37
asV27
p4975
(lp4976
I2487
aI36
asVrapidly
p4977
(lp4978
I2488
aI6
asV21
p4979
(lp4980
I2489
aI25
asV22
p4981
(lp4982
I2490
aI37
asV23
p4983
(lp4984
I2491
aI33
asVSorghum
p4985
(lp4986
I2492
aI4
asVAzpurua
p4987
(lp4988
I2493
aI3
asV28
p4989
(lp4990
I2494
aI35
asV29
p4991
(lp4992
I2495
aI23
asVpct
p4993
(lp4994
I2496
aI886
asVseasonally
p4995
(lp4996
I2497
aI16
asVlate
p4997
(lp4998
I2498
aI34
asVparts
p4999
(lp5000
I2499
aI10
asVforints
p5001
(lp5002
I2500
aI9
asVJersey
p5003
(lp5004
I2501
aI5
asVNSPA
p5005
(lp5006
I2502
aI4
asVtravelling
p5007
(lp5008
I2503
aI4
asVgovernments
p5009
(lp5010
I2504
aI19
asVrumor
p5011
(lp5012
I2505
aI4
asVVersatile
p5013
(lp5014
I2506
aI7
asVMoody
p5015
(lp5016
I2507
aI9
asVwouldn
p5017
(lp5018
I2508
aI4
asVevening
p5019
(lp5020
I2509
aI3
asVreturn
p5021
(lp5022
I2510
aI22
asVseeking
p5023
(lp5024
I2511
aI19
asVfood
p5025
(lp5026
I2512
aI11
asVpropose
p5027
(lp5028
I2513
aI3
asVlargest
p5029
(lp5030
I2514
aI45
asVMichael
p5031
(lp5032
I2515
aI11
asVL
p5033
(lp5034
I2516
aI26
asVslight
p5035
(lp5036
I2517
aI3
asVanticipated
p5037
(lp5038
I2518
aI6
asVframework
p5039
(lp5040
I2519
aI3
asVGSP
p5041
(lp5042
I2520
aI3
asVBandai
p5043
(lp5044
I2521
aI3
asVfoot
p5045
(lp5046
I2522
aI4
asVspeculate
p5047
(lp5048
I2523
aI3
asVassociation
p5049
(lp5050
I2524
aI5
asVgrowing
p5051
(lp5052
I2525
aI17
asVproducts
p5053
(lp5054
I2526
aI72
asVoccasions
p5055
(lp5056
I2527
aI3
asVlevel
p5057
(lp5058
I2528
aI29
asVsole
p5059
(lp5060
I2529
aI4
asVTelephone
p5061
(lp5062
I2530
aI9
asVstockmarkets
p5063
(lp5064
I2531
aI3
asVstopped
p5065
(lp5066
I2532
aI3
asVrepayment
p5067
(lp5068
I2533
aI8
asVMcDonnell
p5069
(lp5070
I2534
aI4
asVgazetted
p5071
(lp5072
I2535
aI4
asVports
p5073
(lp5074
I2536
aI4
asVheavy
p5075
(lp5076
I2537
aI10
asVsterling
p5077
(lp5078
I2538
aI11
asVcitizens
p5079
(lp5080
I2539
aI3
asVweight
p5081
(lp5082
I2540
aI7
asVproposals
p5083
(lp5084
I2541
aI26
asVenergy
p5085
(lp5086
I2542
aI12
asVhard
p5087
(lp5088
I2543
aI13
asVreduce
p5089
(lp5090
I2544
aI27
asVidea
p5091
(lp5092
I2545
aI4
asVslowdown
p5093
(lp5094
I2546
aI4
asVextended
p5095
(lp5096
I2547
aI17
asVexpect
p5097
(lp5098
I2548
aI20
asVcarry
p5099
(lp5100
I2549
aI19
asVoperation
p5101
(lp5102
I2550
aI19
asVthing
p5103
(lp5104
I2551
aI5
asVevent
p5105
(lp5106
I2552
aI3
asVreally
p5107
(lp5108
I2553
aI5
asVEngine
p5109
(lp5110
I2554
aI4
asVdeals
p5111
(lp5112
I2555
aI7
asVcreditor
p5113
(lp5114
I2556
aI24
asVjoin
p5115
(lp5116
I2557
aI3
asVGATT
p5117
(lp5118
I2558
aI14
asVcubic
p5119
(lp5120
I2559
aI3
asVprojected
p5121
(lp5122
I2560
aI27
asVresearch
p5123
(lp5124
I2561
aI18
asVacting
p5125
(lp5126
I2562
aI5
asVDefense
p5127
(lp5128
I2563
aI6
asVsafety
p5129
(lp5130
I2564
aI4
asV7
p5131
(lp5132
I2565
aI179
asVindexation
p5133
(lp5134
I2566
aI3
asV170
p5135
(lp5136
I2567
aI6
asVissue
p5137
(lp5138
I2568
aI110
asVClass
p5139
(lp5140
I2569
aI6
asVhighway
p5141
(lp5142
I2570
aI3
asVMario
p5143
(lp5144
I2571
aI5
asVSHV
p5145
(lp5146
I2572
aI4
asVAccording
p5147
(lp5148
I2573
aI6
asVEC
p5149
(lp5150
I2574
aI44
asVeffect
p5151
(lp5152
I2575
aI22
asVhouses
p5153
(lp5154
I2576
aI15
asVreason
p5155
(lp5156
I2577
aI11
asVMaude
p5157
(lp5158
I2578
aI3
asVincluded
p5159
(lp5160
I2579
aI15
asVQtly
p5161
(lp5162
I2580
aI4
asVask
p5163
(lp5164
I2581
aI6
asVChang
p5165
(lp5166
I2582
aI5
asVrises
p5167
(lp5168
I2583
aI11
asVbeginning
p5169
(lp5170
I2584
aI17
asVFidelity
p5171
(lp5172
I2585
aI3
asVdirector
p5173
(lp5174
I2586
aI29
asVowners
p5175
(lp5176
I2587
aI8
asVretained
p5177
(lp5178
I2588
aI3
asVAlgeria
p5179
(lp5180
I2589
aI4
asVEvans
p5181
(lp5182
I2590
aI6
asVlaunch
p5183
(lp5184
I2591
aI10
asVCongress
p5185
(lp5186
I2592
aI19
asVBoston
p5187
(lp5188
I2593
aI18
asVcomputers
p5189
(lp5190
I2594
aI20
asVrunning
p5191
(lp5192
I2595
aI11
asVround
p5193
(lp5194
I2596
aI6
asVconducted
p5195
(lp5196
I2597
aI7
asVafternoon
p5197
(lp5198
I2598
aI16
asVbusinessmen
p5199
(lp5200
I2599
aI3
asVthreat
p5201
(lp5202
I2600
aI4
asVscheduled
p5203
(lp5204
I2601
aI27
asVfallen
p5205
(lp5206
I2602
aI3
asVbushel
p5207
(lp5208
I2603
aI6
asVfeed
p5209
(lp5210
I2604
aI4
asVcopper
p5211
(lp5212
I2605
aI6
asVmajor
p5213
(lp5214
I2606
aI83
asVprotectionist
p5215
(lp5216
I2607
aI4
asVAirlines
p5217
(lp5218
I2608
aI17
asVnumber
p5219
(lp5220
I2609
aI29
asVfeet
p5221
(lp5222
I2610
aI10
asVenlarged
p5223
(lp5224
I2611
aI3
asVIndian
p5225
(lp5226
I2612
aI4
asVdefects
p5227
(lp5228
I2613
aI4
asVloadings
p5229
(lp5230
I2614
aI3
asVslower
p5231
(lp5232
I2615
aI4
asVwages
p5233
(lp5234
I2616
aI5
asVstory
p5235
(lp5236
I2617
aI5
asVheads
p5237
(lp5238
I2618
aI5
asVscathing
p5239
(lp5240
I2619
aI3
asVCourier
p5241
(lp5242
I2620
aI7
asVEnvironmental
p5243
(lp5244
I2621
aI3
asVintroduction
p5245
(lp5246
I2622
aI5
asVleading
p5247
(lp5248
I2623
aI25
asVfinanced
p5249
(lp5250
I2624
aI5
asVregulation
p5251
(lp5252
I2625
aI3
asVshilling
p5253
(lp5254
I2626
aI3
asV182
p5255
(lp5256
I2627
aI3
asVcontra
p5257
(lp5258
I2628
aI3
asV180
p5259
(lp5260
I2629
aI5
asVstation
p5261
(lp5262
I2630
aI3
asVstatement
p5263
(lp5264
I2631
aI77
asVDelta
p5265
(lp5266
I2632
aI9
asVRegulatory
p5267
(lp5268
I2633
aI4
asVton
p5269
(lp5270
I2634
aI8
asV188
p5271
(lp5272
I2635
aI5
asVscheme
p5273
(lp5274
I2636
aI10
asVRep
p5275
(lp5276
I2637
aI3
asVstore
p5277
(lp5278
I2638
aI3
asVlisted
p5279
(lp5280
I2639
aI22
asVmainstay
p5281
(lp5282
I2640
aI3
asVunemployment
p5283
(lp5284
I2641
aI29
asVselling
p5285
(lp5286
I2642
aI40
asVChemLawn
p5287
(lp5288
I2643
aI10
asVrelationship
p5289
(lp5290
I2644
aI7
asVhotel
p5291
(lp5292
I2645
aI3
asVimmediate
p5293
(lp5294
I2646
aI10
asVappreciation
p5295
(lp5296
I2647
aI6
asVfavorable
p5297
(lp5298
I2648
aI4
asVbelieve
p5299
(lp5300
I2649
aI16
asVconvinced
p5301
(lp5302
I2650
aI3
asVpercentage
p5303
(lp5304
I2651
aI21
asVHutton
p5305
(lp5306
I2652
aI24
asVfinancing
p5307
(lp5308
I2653
aI46
asVgrew
p5309
(lp5310
I2654
aI10
asVwidened
p5311
(lp5312
I2655
aI3
asVdouble
p5313
(lp5314
I2656
aI12
asVKenosha
p5315
(lp5316
I2657
aI6
asVaims
p5317
(lp5318
I2658
aI4
asVdetermined
p5319
(lp5320
I2659
aI12
asVrisks
p5321
(lp5322
I2660
aI7
asVMonsod
p5323
(lp5324
I2661
aI15
asVBurlington
p5325
(lp5326
I2662
aI3
asVlease
p5327
(lp5328
I2663
aI8
asVtreated
p5329
(lp5330
I2664
aI3
asVinteractive
p5331
(lp5332
I2665
aI3
asVAffairs
p5333
(lp5334
I2666
aI8
asV880
p5335
(lp5336
I2667
aI3
asVoutstanding
p5337
(lp5338
I2668
aI43
asVimports
p5339
(lp5340
I2669
aI61
asVPoulenc
p5341
(lp5342
I2670
aI3
asVbusinesses
p5343
(lp5344
I2671
aI19
asVDouglas
p5345
(lp5346
I2672
aI9
asVroughly
p5347
(lp5348
I2673
aI5
asVdirect
p5349
(lp5350
I2674
aI11
asVsubstantial
p5351
(lp5352
I2675
aI11
asVMcKiernan
p5353
(lp5354
I2676
aI3
asVEquity
p5355
(lp5356
I2677
aI9
asVColoroll
p5357
(lp5358
I2678
aI3
asVPenn
p5359
(lp5360
I2679
aI5
asVPenser
p5361
(lp5362
I2680
aI3
asVorders
p5363
(lp5364
I2681
aI40
asVoption
p5365
(lp5366
I2682
aI24
asVsell
p5367
(lp5368
I2683
aI55
asVratings
p5369
(lp5370
I2684
aI5
asVbuilt
p5371
(lp5372
I2685
aI10
asVzero
p5373
(lp5374
I2686
aI8
asVdepending
p5375
(lp5376
I2687
aI11
asVFood
p5377
(lp5378
I2688
aI8
asVIceland
p5379
(lp5380
I2689
aI3
asVself
p5381
(lp5382
I2690
aI8
asVVirginia
p5383
(lp5384
I2691
aI3
asVport
p5385
(lp5386
I2692
aI12
asVArab
p5387
(lp5388
I2693
aI10
asVmajority
p5389
(lp5390
I2694
aI14
asVinternal
p5391
(lp5392
I2695
aI12
asVGermany
p5393
(lp5394
I2696
aI22
asVbuild
p5395
(lp5396
I2697
aI13
asVfinding
p5397
(lp5398
I2698
aI4
asVWith
p5399
(lp5400
I2699
aI12
asVprovince
p5401
(lp5402
I2700
aI3
asVplay
p5403
(lp5404
I2701
aI6
asVexperienced
p5405
(lp5406
I2702
aI3
asVJames
p5407
(lp5408
I2703
aI8
asVQabas
p5409
(lp5410
I2704
aI3
asVapproves
p5411
(lp5412
I2705
aI3
asVsets
p5413
(lp5414
I2706
aI3
asVM
p5415
(lp5416
I2707
aI23
asVquota
p5417
(lp5418
I2708
aI46
asVGovernor
p5419
(lp5420
I2709
aI7
asV77
p5421
(lp5422
I2710
aI10
asV76
p5423
(lp5424
I2711
aI10
asVChief
p5425
(lp5426
I2712
aI11
asV74
p5427
(lp5428
I2713
aI6
asVGrain
p5429
(lp5430
I2714
aI6
asVplan
p5431
(lp5432
I2715
aI66
asVsignificant
p5433
(lp5434
I2716
aI22
asV07
p5435
(lp5436
I2717
aI5
asVgilt
p5437
(lp5438
I2718
aI6
asVThe
p5439
(lp5440
I2719
aI1182
asVextremely
p5441
(lp5442
I2720
aI5
asVapproved
p5443
(lp5444
I2721
aI37
asV79
p5445
(lp5446
I2722
aI9
asVstands
p5447
(lp5448
I2723
aI4
asVdemand
p5449
(lp5450
I2724
aI64
asV65
p5451
(lp5452
I2725
aI24
asVdealers
p5453
(lp5454
I2726
aI32
asVIEL
p5455
(lp5456
I2727
aI12
asVseize
p5457
(lp5458
I2728
aI3
asVShiratori
p5459
(lp5460
I2729
aI4
asVclear
p5461
(lp5462
I2730
aI18
asVpopularity
p5463
(lp5464
I2731
aI5
asVcover
p5465
(lp5466
I2732
aI15
asVdevalue
p5467
(lp5468
I2733
aI3
asVtraditional
p5469
(lp5470
I2734
aI9
asVconcessions
p5471
(lp5472
I2735
aI6
asVLouis
p5473
(lp5474
I2736
aI5
asVringgit
p5475
(lp5476
I2737
aI8
asVbarrel
p5477
(lp5478
I2738
aI18
asVlatest
p5479
(lp5480
I2739
aI27
asVReynolds
p5481
(lp5482
I2740
aI8
asVinstitutions
p5483
(lp5484
I2741
aI24
asVlying
p5485
(lp5486
I2742
aI3
asVjoining
p5487
(lp5488
I2743
aI5
asVsector
p5489
(lp5490
I2744
aI55
asVcontracted
p5491
(lp5492
I2745
aI3
asVparticularly
p5493
(lp5494
I2746
aI19
asVgold
p5495
(lp5496
I2747
aI22
asV217
p5497
(lp5498
I2748
aI3
asVobligations
p5499
(lp5500
I2749
aI14
asVmemorandum
p5501
(lp5502
I2750
aI3
asV265
p5503
(lp5504
I2751
aI3
asVAmgen
p5505
(lp5506
I2752
aI3
asVsession
p5507
(lp5508
I2753
aI11
asVPenril
p5509
(lp5510
I2754
aI3
asVAlan
p5511
(lp5512
I2755
aI4
asVfreight
p5513
(lp5514
I2756
aI4
asVmultilateral
p5515
(lp5516
I2757
aI4
asVstores
p5517
(lp5518
I2758
aI13
asVKeating
p5519
(lp5520
I2759
aI7
asVfine
p5521
(lp5522
I2760
aI5
asV75
p5523
(lp5524
I2761
aI39
asVBA
p5525
(lp5526
I2762
aI7
asVimpact
p5527
(lp5528
I2763
aI16
asVExports
p5529
(lp5530
I2764
aI9
asVBass
p5531
(lp5532
I2765
aI7
asVnorthern
p5533
(lp5534
I2766
aI5
asVCoordination
p5535
(lp5536
I2767
aI3
asVmerger
p5537
(lp5538
I2768
aI27
asVDauster
p5539
(lp5540
I2769
aI3
asVVentana
p5541
(lp5542
I2770
aI3
asVstockholders
p5543
(lp5544
I2771
aI5
asVwaiting
p5545
(lp5546
I2772
aI6
asVFrench
p5547
(lp5548
I2773
aI29
asVfailed
p5549
(lp5550
I2774
aI22
asVflights
p5551
(lp5552
I2775
aI8
asVTraffic
p5553
(lp5554
I2776
aI6
asVsurveyed
p5555
(lp5556
I2777
aI6
asVstability
p5557
(lp5558
I2778
aI9
asVequity
p5559
(lp5560
I2779
aI31
asVencouraged
p5561
(lp5562
I2780
aI3
asVGros
p5563
(lp5564
I2781
aI9
asVrenegotiate
p5565
(lp5566
I2782
aI4
asVinsurance
p5567
(lp5568
I2783
aI16
asVNaylor
p5569
(lp5570
I2784
aI4
asVBased
p5571
(lp5572
I2785
aI4
asVPrime
p5573
(lp5574
I2786
aI29
asVexecutive
p5575
(lp5576
I2787
aI39
asVhit
p5577
(lp5578
I2788
aI13
asVgains
p5579
(lp5580
I2789
aI23
asVpermission
p5581
(lp5582
I2790
aI3
asVliquid
p5583
(lp5584
I2791
aI3
asVcapital
p5585
(lp5586
I2792
aI71
asVdry
p5587
(lp5588
I2793
aI5
asVIAC
p5589
(lp5590
I2794
aI4
asVWhile
p5591
(lp5592
I2795
aI8
asVstg
p5593
(lp5594
I2796
aI59
asVpreparing
p5595
(lp5596
I2797
aI4
asVclosely
p5597
(lp5598
I2798
aI12
asVreporters
p5599
(lp5600
I2799
aI30
asVbilateral
p5601
(lp5602
I2800
aI8
asV69
p5603
(lp5604
I2801
aI12
asVresolve
p5605
(lp5606
I2802
aI4
asVdoubled
p5607
(lp5608
I2803
aI4
asVcoupons
p5609
(lp5610
I2804
aI4
asVbanking
p5611
(lp5612
I2805
aI42
asVinterim
p5613
(lp5614
I2806
aI3
asVcommon
p5615
(lp5616
I2807
aI93
asVwithdrawal
p5617
(lp5618
I2808
aI5
asVTabak
p5619
(lp5620
I2809
aI3
asVriver
p5621
(lp5622
I2810
aI4
asVBombay
p5623
(lp5624
I2811
aI3
asVset
p5625
(lp5626
I2812
aI64
asVgrain
p5627
(lp5628
I2813
aI18
asVFor
p5629
(lp5630
I2814
aI28
asVachieved
p5631
(lp5632
I2815
aI5
asVintelligence
p5633
(lp5634
I2816
aI3
asVRospatch
p5635
(lp5636
I2817
aI12
asVseats
p5637
(lp5638
I2818
aI5
asV316
p5639
(lp5640
I2819
aI3
asVFrance
p5641
(lp5642
I2820
aI20
asVWright
p5643
(lp5644
I2821
aI3
asVindividual
p5645
(lp5646
I2822
aI8
asVriyal
p5647
(lp5648
I2823
aI5
asVtender
p5649
(lp5650
I2824
aI38
asVclose
p5651
(lp5652
I2825
aI44
asVNeither
p5653
(lp5654
I2826
aI5
asVarm
p5655
(lp5656
I2827
aI5
asVconsidered
p5657
(lp5658
I2828
aI14
asVregulator
p5659
(lp5660
I2829
aI3
asVSubroto
p5661
(lp5662
I2830
aI5
asVcrushing
p5663
(lp5664
I2831
aI5
asVvisiting
p5665
(lp5666
I2832
aI4
asVspeed
p5667
(lp5668
I2833
aI8
asVuser
p5669
(lp5670
I2834
aI3
asVcurrently
p5671
(lp5672
I2835
aI35
asVdiluted
p5673
(lp5674
I2836
aI3
asVunions
p5675
(lp5676
I2837
aI6
asVOfficials
p5677
(lp5678
I2838
aI10
asVPlc
p5679
(lp5680
I2839
aI26
asVmanagers
p5681
(lp5682
I2840
aI21
asVRealty
p5683
(lp5684
I2841
aI5
asVSony
p5685
(lp5686
I2842
aI5
asVconditions
p5687
(lp5688
I2843
aI27
asVfavor
p5689
(lp5690
I2844
aI5
asVwide
p5691
(lp5692
I2845
aI5
asVavailable
p5693
(lp5694
I2846
aI56
asVrecently
p5695
(lp5696
I2847
aI17
asVcreating
p5697
(lp5698
I2848
aI3
asVTeles
p5699
(lp5700
I2849
aI3
asVannouncement
p5701
(lp5702
I2850
aI10
asVtargeted
p5703
(lp5704
I2851
aI4
asVdividends
p5705
(lp5706
I2852
aI9
asVfranchises
p5707
(lp5708
I2853
aI5
asVattention
p5709
(lp5710
I2854
aI4
asVFlorida
p5711
(lp5712
I2855
aI3
asVdeliberately
p5713
(lp5714
I2856
aI3
asVCity
p5715
(lp5716
I2857
aI6
asVaircraft
p5717
(lp5718
I2858
aI22
asVsucceed
p5719
(lp5720
I2859
aI7
asVimporters
p5721
(lp5722
I2860
aI3
asVopposition
p5723
(lp5724
I2861
aI14
asVAfrican
p5725
(lp5726
I2862
aI4
asVdividend
p5727
(lp5728
I2863
aI40
asVIonic
p5729
(lp5730
I2864
aI3
asVprospects
p5731
(lp5732
I2865
aI17
asVimproved
p5733
(lp5734
I2866
aI17
asVlicense
p5735
(lp5736
I2867
aI4
asVGreek
p5737
(lp5738
I2868
aI7
asVannual
p5739
(lp5740
I2869
aI64
asVVMS
p5741
(lp5742
I2870
aI3
asVNigerian
p5743
(lp5744
I2871
aI5
asVconnection
p5745
(lp5746
I2872
aI9
asVGalaxy
p5747
(lp5748
I2873
aI7
asVcontext
p5749
(lp5750
I2874
aI3
asVfocused
p5751
(lp5752
I2875
aI4
asVmean
p5753
(lp5754
I2876
aI7
asVapprove
p5755
(lp5756
I2877
aI7
asVload
p5757
(lp5758
I2878
aI6
asVFriday
p5759
(lp5760
I2879
aI41
asVTurkish
p5761
(lp5762
I2880
aI3
asVreasons
p5763
(lp5764
I2881
aI4
asVloan
p5765
(lp5766
I2882
aI50
asVEnglish
p5767
(lp5768
I2883
aI8
asVcommunity
p5769
(lp5770
I2884
aI5
asVNobel
p5771
(lp5772
I2885
aI6
asVagents
p5773
(lp5774
I2886
aI3
asVvessel
p5775
(lp5776
I2887
aI4
asVDiagnostic
p5777
(lp5778
I2888
aI10
asVWar
p5779
(lp5780
I2889
aI4
asVexpensive
p5781
(lp5782
I2890
aI7
asVplatinum
p5783
(lp5784
I2891
aI5
asVdecline
p5785
(lp5786
I2892
aI37
asVdescribed
p5787
(lp5788
I2893
aI4
asVBrothers
p5789
(lp5790
I2894
aI12
asVmonthly
p5791
(lp5792
I2895
aI20
asVpolitical
p5793
(lp5794
I2896
aI26
asVstrategy
p5795
(lp5796
I2897
aI8
asVconvicted
p5797
(lp5798
I2898
aI3
asVMost
p5799
(lp5800
I2899
aI8
asVsecret
p5801
(lp5802
I2900
aI3
asVoptions
p5803
(lp5804
I2901
aI22
asVCalifornia
p5805
(lp5806
I2902
aI9
asVmaintenance
p5807
(lp5808
I2903
aI5
asVwait
p5809
(lp5810
I2904
aI5
asVMack
p5811
(lp5812
I2905
aI5
asV4
p5813
(lp5814
I2906
aI263
asVfirm
p5815
(lp5816
I2907
aI65
asVlived
p5817
(lp5818
I2908
aI3
asVrepayments
p5819
(lp5820
I2909
aI17
asVpassengers
p5821
(lp5822
I2910
aI3
asVgas
p5823
(lp5824
I2911
aI26
asVconvert
p5825
(lp5826
I2912
aI5
asVN
p5827
(lp5828
I2913
aI33
asVfund
p5829
(lp5830
I2914
aI20
asVAquino
p5831
(lp5832
I2915
aI5
asVSaudi
p5833
(lp5834
I2916
aI28
asVbidding
p5835
(lp5836
I2917
aI5
asVquarterly
p5837
(lp5838
I2918
aI17
asVprices
p5839
(lp5840
I2919
aI184
asVdespite
p5841
(lp5842
I2920
aI10
asVdenominated
p5843
(lp5844
I2921
aI6
asVMichel
p5845
(lp5846
I2922
aI6
asVSoftware
p5847
(lp5848
I2923
aI4
asVpact
p5849
(lp5850
I2924
aI20
asVhandling
p5851
(lp5852
I2925
aI7
asVuncertain
p5853
(lp5854
I2926
aI4
asVlook
p5855
(lp5856
I2927
aI4
asVRolls
p5857
(lp5858
I2928
aI4
asVtalking
p5859
(lp5860
I2929
aI7
asVindefinitely
p5861
(lp5862
I2930
aI3
asV285
p5863
(lp5864
I2931
aI4
asVreliable
p5865
(lp5866
I2932
aI3
asVexpanded
p5867
(lp5868
I2933
aI6
asVmln
p5869
(lp5870
I2934
aI953
asVbudget
p5871
(lp5872
I2935
aI63
asVearthquakes
p5873
(lp5874
I2936
aI5
asVtechnical
p5875
(lp5876
I2937
aI3
asVreplaced
p5877
(lp5878
I2938
aI6
asVIntelligence
p5879
(lp5880
I2939
aI4
asVfleet
p5881
(lp5882
I2940
aI7
asVderegulation
p5883
(lp5884
I2941
aI11
asV31
p5885
(lp5886
I2942
aI85
asVMarket
p5887
(lp5888
I2943
aI11
asVHotels
p5889
(lp5890
I2944
aI14
asVIndustries
p5891
(lp5892
I2945
aI29
asVowed
p5893
(lp5894
I2946
aI8
asVQatar
p5895
(lp5896
I2947
aI11
asVpound
p5897
(lp5898
I2948
aI3
asVItaly
p5899
(lp5900
I2949
aI23
asVSumitomo
p5901
(lp5902
I2950
aI7
asVemployees
p5903
(lp5904
I2951
aI16
asVcommenting
p5905
(lp5906
I2952
aI3
asVbacking
p5907
(lp5908
I2953
aI4
asVaveraging
p5909
(lp5910
I2954
aI5
asVstations
p5911
(lp5912
I2955
aI4
asVorigin
p5913
(lp5914
I2956
aI3
asVTin
p5915
(lp5916
I2957
aI4
asVitself
p5917
(lp5918
I2958
aI13
asVowes
p5919
(lp5920
I2959
aI5
asVready
p5921
(lp5922
I2960
aI5
asV34
p5923
(lp5924
I2961
aI21
asVEaster
p5925
(lp5926
I2962
aI4
asVStock
p5927
(lp5928
I2963
aI20
asVMetal
p5929
(lp5930
I2964
aI6
asVunderwriters
p5931
(lp5932
I2965
aI9
asVgrant
p5933
(lp5934
I2966
aI7
asVPenney
p5935
(lp5936
I2967
aI4
asVproblems
p5937
(lp5938
I2968
aI23
asV870
p5939
(lp5940
I2969
aI3
asVtextile
p5941
(lp5942
I2970
aI10
asVvirtually
p5943
(lp5944
I2971
aI5
asVwidely
p5945
(lp5946
I2972
aI9
asVMany
p5947
(lp5948
I2973
aI9
asV9
p5949
(lp5950
I2974
aI136
asVresulting
p5951
(lp5952
I2975
aI3
asVrelatively
p5953
(lp5954
I2976
aI14
asVconflict
p5955
(lp5956
I2977
aI3
asVhigher
p5957
(lp5958
I2978
aI52
asVMMCs
p5959
(lp5960
I2979
aI4
asVFaith
p5961
(lp5962
I2980
aI5
asVAbout
p5963
(lp5964
I2981
aI4
asVused
p5965
(lp5966
I2982
aI52
asVtemporary
p5967
(lp5968
I2983
aI8
asVCBT
p5969
(lp5970
I2984
aI3
asVbonus
p5971
(lp5972
I2985
aI12
asVrestraint
p5973
(lp5974
I2986
aI4
asVIll
p5975
(lp5976
I2987
aI4
asVLines
p5977
(lp5978
I2988
aI9
asVyesterday
p5979
(lp5980
I2989
aI52
asVflows
p5981
(lp5982
I2990
aI3
asVsteps
p5983
(lp5984
I2991
aI7
asVRetrieval
p5985
(lp5986
I2992
aI6
asVlevels
p5987
(lp5988
I2993
aI28
asVuses
p5989
(lp5990
I2994
aI4
asVPublications
p5991
(lp5992
I2995
aI4
asVnecessity
p5993
(lp5994
I2996
aI3
asVaggregate
p5995
(lp5996
I2997
aI3
asV80
p5997
(lp5998
I2998
aI35
asVrecent
p5999
(lp6000
I2999
aI61
asVLimited
p6001
(lp6002
I3000
aI3
asVlower
p6003
(lp6004
I3001
aI36
asVHoechst
p6005
(lp6006
I3002
aI4
asVguarantee
p6007
(lp6008
I3003
aI7
asVbids
p6009
(lp6010
I3004
aI5
asVspent
p6011
(lp6012
I3005
aI6
asVProceeds
p6013
(lp6014
I3006
aI6
asVperson
p6015
(lp6016
I3007
aI3
asVRate
p6017
(lp6018
I3008
aI3
asVEconomic
p6019
(lp6020
I3009
aI16
asVservices
p6021
(lp6022
I3010
aI36
asVmachinery
p6023
(lp6024
I3011
aI5
asVwithdraw
p6025
(lp6026
I3012
aI3
asVTalks
p6027
(lp6028
I3013
aI5
asVentry
p6029
(lp6030
I3014
aI5
asVsignalled
p6031
(lp6032
I3015
aI3
asVPrice
p6033
(lp6034
I3016
aI8
asVknow
p6035
(lp6036
I3017
aI5
asV768
p6037
(lp6038
I3018
aI3
asVExchequer
p6039
(lp6040
I3019
aI7
asVpolled
p6041
(lp6042
I3020
aI5
asVPorsche
p6043
(lp6044
I3021
aI4
asV767
p6045
(lp6046
I3022
aI3
asV4th
p6047
(lp6048
I3023
aI6
asVCCR
p6049
(lp6050
I3024
aI3
asVBoren
p6051
(lp6052
I3025
aI6
asVusing
p6053
(lp6054
I3026
aI14
asValternative
p6055
(lp6056
I3027
aI25
asVCCC
p6057
(lp6058
I3028
aI4
asVdiscipline
p6059
(lp6060
I3029
aI4
asVretirement
p6061
(lp6062
I3030
aI5
asVinformal
p6063
(lp6064
I3031
aI7
asVadvisers
p6065
(lp6066
I3032
aI4
asVworkers
p6067
(lp6068
I3033
aI29
asVdeputy
p6069
(lp6070
I3034
aI8
asVguaranteed
p6071
(lp6072
I3035
aI19
asVOakleaf
p6073
(lp6074
I3036
aI3
asVmakers
p6075
(lp6076
I3037
aI12
asVsource
p6077
(lp6078
I3038
aI11
asVlabour
p6079
(lp6080
I3039
aI7
asVBancshares
p6081
(lp6082
I3040
aI4
asVlocation
p6083
(lp6084
I3041
aI5
asVtabled
p6085
(lp6086
I3042
aI3
asVwin
p6087
(lp6088
I3043
aI6
asVDrexel
p6089
(lp6090
I3044
aI6
asVviolations
p6091
(lp6092
I3045
aI6
asVguarantees
p6093
(lp6094
I3046
aI3
asVadministrative
p6095
(lp6096
I3047
aI6
asVremaining
p6097
(lp6098
I3048
aI21
asVchairman
p6099
(lp6100
I3049
aI68
asVassociations
p6101
(lp6102
I3050
aI3
asVOn
p6103
(lp6104
I3051
aI15
asVcomplaint
p6105
(lp6106
I3052
aI6
asVsmelter
p6107
(lp6108
I3053
aI8
asVmarch
p6109
(lp6110
I3054
aI3
asVThey
p6111
(lp6112
I3055
aI67
asVemergency
p6113
(lp6114
I3056
aI14
asVdemands
p6115
(lp6116
I3057
aI11
asVOf
p6117
(lp6118
I3058
aI5
asVcouple
p6119
(lp6120
I3059
aI3
asVSuisse
p6121
(lp6122
I3060
aI3
asVAir
p6123
(lp6124
I3061
aI18
asVjudgement
p6125
(lp6126
I3062
aI3
asVgame
p6127
(lp6128
I3063
aI3
asVBrierley
p6129
(lp6130
I3064
aI3
asVdamage
p6131
(lp6132
I3065
aI5
asVbit
p6133
(lp6134
I3066
aI9
asVtire
p6135
(lp6136
I3067
aI3
asVprojects
p6137
(lp6138
I3068
aI5
asVformal
p6139
(lp6140
I3069
aI9
asVPakistan
p6141
(lp6142
I3070
aI6
asVoutright
p6143
(lp6144
I3071
aI4
asVCarbide
p6145
(lp6146
I3072
aI4
asVimposed
p6147
(lp6148
I3073
aI8
asVd
p6149
(lp6150
I3074
aI6
asVsemi
p6151
(lp6152
I3075
aI7
asVPreviously
p6153
(lp6154
I3076
aI4
asVfollows
p6155
(lp6156
I3077
aI12
asVsignal
p6157
(lp6158
I3078
aI4
asVcapitals
p6159
(lp6160
I3079
aI3
asVassociate
p6161
(lp6162
I3080
aI3
asVcontinue
p6163
(lp6164
I3081
aI51
asVyields
p6165
(lp6166
I3082
aI3
asVregion
p6167
(lp6168
I3083
aI10
asVrefineries
p6169
(lp6170
I3084
aI5
asVsuppliers
p6171
(lp6172
I3085
aI3
asV8ths
p6173
(lp6174
I3086
aI3
asVmethods
p6175
(lp6176
I3087
aI3
asVGulf
p6177
(lp6178
I3088
aI40
asVGuinness
p6179
(lp6180
I3089
aI4
asVspring
p6181
(lp6182
I3090
aI4
asVunderstood
p6183
(lp6184
I3091
aI4
asVstrongest
p6185
(lp6186
I3092
aI3
asVeconomic
p6187
(lp6188
I3093
aI65
asVpalm
p6189
(lp6190
I3094
aI11
asVpricing
p6191
(lp6192
I3095
aI18
asVsight
p6193
(lp6194
I3096
aI4
asVapply
p6195
(lp6196
I3097
aI7
asVclasses
p6197
(lp6198
I3098
aI4
asVEconomy
p6199
(lp6200
I3099
aI3
asVAMI
p6201
(lp6202
I3100
aI9
asVdelivered
p6203
(lp6204
I3101
aI13
asVgradually
p6205
(lp6206
I3102
aI3
asVdenominations
p6207
(lp6208
I3103
aI12
asVFrank
p6209
(lp6210
I3104
aI3
asVMoscow
p6211
(lp6212
I3105
aI8
asVspokesman
p6213
(lp6214
I3106
aI95
asVexceeding
p6215
(lp6216
I3107
aI3
asVWitter
p6217
(lp6218
I3108
aI8
asVLyng
p6219
(lp6220
I3109
aI10
asVmarket
p6221
(lp6222
I3110
aI281
asVslash
p6223
(lp6224
I3111
aI4
asVAMR
p6225
(lp6226
I3112
aI4
asVAndriessen
p6227
(lp6228
I3113
aI7
asVNorth
p6229
(lp6230
I3114
aI24
asVmeasures
p6231
(lp6232
I3115
aI25
asVrun
p6233
(lp6234
I3116
aI14
asV300
p6235
(lp6236
I3117
aI51
asVreach
p6237
(lp6238
I3118
aI10
asVprocessing
p6239
(lp6240
I3119
aI7
asVcontinuing
p6241
(lp6242
I3120
aI13
asVagreement
p6243
(lp6244
I3121
aI123
asVO
p6245
(lp6246
I3122
aI7
asVrebates
p6247
(lp6248
I3123
aI5
asVstep
p6249
(lp6250
I3124
aI9
asVredundancies
p6251
(lp6252
I3125
aI4
asVserved
p6253
(lp6254
I3126
aI7
asVabroad
p6255
(lp6256
I3127
aI12
asVtroops
p6257
(lp6258
I3128
aI5
asVsub
p6259
(lp6260
I3129
aI3
asVpipeline
p6261
(lp6262
I3130
aI11
asVgoods
p6263
(lp6264
I3131
aI16
asVconsumption
p6265
(lp6266
I3132
aI11
asVCommunications
p6267
(lp6268
I3133
aI12
asVexaggerated
p6269
(lp6270
I3134
aI4
asVPont
p6271
(lp6272
I3135
aI4
asVcompleting
p6273
(lp6274
I3136
aI3
asVSavings
p6275
(lp6276
I3137
aI7
asVreduced
p6277
(lp6278
I3138
aI20
asVrange
p6279
(lp6280
I3139
aI22
asVregular
p6281
(lp6282
I3140
aI5
asVbeans
p6283
(lp6284
I3141
aI8
asVCommittee
p6285
(lp6286
I3142
aI8
asVbean
p6287
(lp6288
I3143
aI3
asV73
p6289
(lp6290
I3144
aI14
asVreplacement
p6291
(lp6292
I3145
aI10
asVRedstone
p6293
(lp6294
I3146
aI25
asVfarmers
p6295
(lp6296
I3147
aI35
asV72
p6297
(lp6298
I3148
aI9
asVCynergy
p6299
(lp6300
I3149
aI5
asVseeing
p6301
(lp6302
I3150
aI4
asV71
p6303
(lp6304
I3151
aI14
asV70
p6305
(lp6306
I3152
aI38
asVintegral
p6307
(lp6308
I3153
aI3
asVsteady
p6309
(lp6310
I3154
aI8
asVShares
p6311
(lp6312
I3155
aI7
asVTheir
p6313
(lp6314
I3156
aI4
asVicebreaker
p6315
(lp6316
I3157
aI5
asVprimarily
p6317
(lp6318
I3158
aI5
asVQuebecor
p6319
(lp6320
I3159
aI8
asVextraordinary
p6321
(lp6322
I3160
aI21
asVinventories
p6323
(lp6324
I3161
aI8
asVbankruptcy
p6325
(lp6326
I3162
aI3
asVseverely
p6327
(lp6328
I3163
aI4
asVstatistics
p6329
(lp6330
I3164
aI10
asVspending
p6331
(lp6332
I3165
aI14
asVArmy
p6333
(lp6334
I3166
aI5
asVquestion
p6335
(lp6336
I3167
aI15
asVsubmit
p6337
(lp6338
I3168
aI3
asVcustom
p6339
(lp6340
I3169
aI6
asVWallenbergs
p6341
(lp6342
I3170
aI7
asVsoared
p6343
(lp6344
I3171
aI7
asVexceed
p6345
(lp6346
I3172
aI10
asVsuit
p6347
(lp6348
I3173
aI4
asVforward
p6349
(lp6350
I3174
aI6
asVsubsequent
p6351
(lp6352
I3175
aI4
asVJacques
p6353
(lp6354
I3176
aI3
asVoilseeds
p6355
(lp6356
I3177
aI3
asVrecord
p6357
(lp6358
I3178
aI67
asVmanufacture
p6359
(lp6360
I3179
aI4
asVSince
p6361
(lp6362
I3180
aI8
asVinteragency
p6363
(lp6364
I3181
aI3
asVunderlines
p6365
(lp6366
I3182
aI3
asVregistered
p6367
(lp6368
I3183
aI7
asVoils
p6369
(lp6370
I3184
aI6
asVslump
p6371
(lp6372
I3185
aI3
asVinstalments
p6373
(lp6374
I3186
aI3
asVreiterated
p6375
(lp6376
I3187
aI6
asVlink
p6377
(lp6378
I3188
aI4
asVFranklin
p6379
(lp6380
I3189
aI4
asVfrancs
p6381
(lp6382
I3190
aI42
asVFla
p6383
(lp6384
I3191
aI5
asVAshton
p6385
(lp6386
I3192
aI3
asVline
p6387
(lp6388
I3193
aI35
asV556
p6389
(lp6390
I3194
aI3
asVconsiderable
p6391
(lp6392
I3195
aI5
asVraising
p6393
(lp6394
I3196
aI8
asVposted
p6395
(lp6396
I3197
aI11
asVGDP
p6397
(lp6398
I3198
aI4
asVrejection
p6399
(lp6400
I3199
aI3
asVrefinancing
p6401
(lp6402
I3200
aI3
asVOffice
p6403
(lp6404
I3201
aI6
asVBell
p6405
(lp6406
I3202
aI5
asVTuesday
p6407
(lp6408
I3203
aI15
asVConsolidated
p6409
(lp6410
I3204
aI9
asVLoan
p6411
(lp6412
I3205
aI8
asVAfrica
p6413
(lp6414
I3206
aI6
asVpar
p6415
(lp6416
I3207
aI15
asVinternational
p6417
(lp6418
I3208
aI44
asVmaturity
p6419
(lp6420
I3209
aI12
asV116
p6421
(lp6422
I3210
aI6
asVexploration
p6423
(lp6424
I3211
aI7
asVreflects
p6425
(lp6426
I3212
aI5
asVStansbury
p6427
(lp6428
I3213
aI3
asVplanes
p6429
(lp6430
I3214
aI8
asVfluctuations
p6431
(lp6432
I3215
aI6
asVretaliatory
p6433
(lp6434
I3216
aI3
asVsimilar
p6435
(lp6436
I3217
aI14
asVprofessor
p6437
(lp6438
I3218
aI5
asVBankhaus
p6439
(lp6440
I3219
aI4
asVunits
p6441
(lp6442
I3220
aI30
asVordered
p6443
(lp6444
I3221
aI6
asVCooperation
p6445
(lp6446
I3222
aI7
asVdefined
p6447
(lp6448
I3223
aI5
asVlikewise
p6449
(lp6450
I3224
aI3
asVinfluence
p6451
(lp6452
I3225
aI6
asVmetals
p6453
(lp6454
I3226
aI6
asVTerminal
p6455
(lp6456
I3227
aI5
asVTo
p6457
(lp6458
I3228
aI11
asVengineering
p6459
(lp6460
I3229
aI8
asVparliament
p6461
(lp6462
I3230
aI8
asVcurb
p6463
(lp6464
I3231
aI8
asVInternational
p6465
(lp6466
I3232
aI93
asVManhattan
p6467
(lp6468
I3233
aI4
asVcotton
p6469
(lp6470
I3234
aI12
asVtranche
p6471
(lp6472
I3235
aI8
asVCommissioner
p6473
(lp6474
I3236
aI4
asVMar
p6475
(lp6476
I3237
aI6
asVamounts
p6477
(lp6478
I3238
aI7
asVHutchison
p6479
(lp6480
I3239
aI9
asVVenezuela
p6481
(lp6482
I3240
aI4
asVspokesmen
p6483
(lp6484
I3241
aI3
asVmatching
p6485
(lp6486
I3242
aI10
asVpreventing
p6487
(lp6488
I3243
aI3
asVapplication
p6489
(lp6490
I3244
aI8
asVpoliticians
p6491
(lp6492
I3245
aI4
asVdefinitely
p6493
(lp6494
I3246
aI5
asVelectrical
p6495
(lp6496
I3247
aI4
asVincome
p6497
(lp6498
I3248
aI33
asVdepartment
p6499
(lp6500
I3249
aI38
asVBrodersohn
p6501
(lp6502
I3250
aI6
asVrevision
p6503
(lp6504
I3251
aI7
asVAC
p6505
(lp6506
I3252
aI3
asVelements
p6507
(lp6508
I3253
aI4
asVusers
p6509
(lp6510
I3254
aI9
asVAG
p6511
(lp6512
I3255
aI15
asVprovided
p6513
(lp6514
I3256
aI17
asVAM
p6515
(lp6516
I3257
aI4
asVNakasone
p6517
(lp6518
I3258
aI11
asVWednesday
p6519
(lp6520
I3259
aI22
asVregulations
p6521
(lp6522
I3260
aI3
asVrupees
p6523
(lp6524
I3261
aI6
asVrise
p6525
(lp6526
I3262
aI81
asVAT
p6527
(lp6528
I3263
aI7
asVsides
p6529
(lp6530
I3264
aI9
asVstructure
p6531
(lp6532
I3265
aI10
asVago
p6533
(lp6534
I3266
aI46
asVGoldendale
p6535
(lp6536
I3267
aI5
asVseismologist
p6537
(lp6538
I3268
aI5
asVland
p6539
(lp6540
I3269
aI12
asVvice
p6541
(lp6542
I3270
aI35
asVComalco
p6543
(lp6544
I3271
aI11
asVComissaria
p6545
(lp6546
I3272
aI5
asVbacked
p6547
(lp6548
I3273
aI18
asVbankers
p6549
(lp6550
I3274
aI30
asVdepartments
p6551
(lp6552
I3275
aI3
asVAn
p6553
(lp6554
I3276
aI20
asV2002
p6555
(lp6556
I3277
aI3
asVAs
p6557
(lp6558
I3278
aI20
asVScott
p6559
(lp6560
I3279
aI6
asVAt
p6561
(lp6562
I3280
aI17
asVenrolled
p6563
(lp6564
I3281
aI3
asVfresh
p6565
(lp6566
I3282
aI9
asVSoviets
p6567
(lp6568
I3283
aI4
asVrequires
p6569
(lp6570
I3284
aI3
asVhaving
p6571
(lp6572
I3285
aI10
asVNazer
p6573
(lp6574
I3286
aI7
asVpartial
p6575
(lp6576
I3287
aI6
asVCPO
p6577
(lp6578
I3288
aI4
asVsales
p6579
(lp6580
I3289
aI110
asVissued
p6581
(lp6582
I3290
aI31
asVCPC
p6583
(lp6584
I3291
aI3
asVresults
p6585
(lp6586
I3292
aI31
asVexisting
p6587
(lp6588
I3293
aI22
asVBureau
p6589
(lp6590
I3294
aI5
asVDepartment
p6591
(lp6592
I3295
aI32
asV718
p6593
(lp6594
I3296
aI3
asVadjustment
p6595
(lp6596
I3297
aI6
asVcontributions
p6597
(lp6598
I3298
aI3
asVcenters
p6599
(lp6600
I3299
aI5
asVissues
p6601
(lp6602
I3300
aI42
asVcompact
p6603
(lp6604
I3301
aI5
asVexcludes
p6605
(lp6606
I3302
aI8
asVNon
p6607
(lp6608
I3303
aI7
asVbreached
p6609
(lp6610
I3304
aI4
asVKleinwort
p6611
(lp6612
I3305
aI3
asVBusiness
p6613
(lp6614
I3306
aI17
asVconcerned
p6615
(lp6616
I3307
aI5
asVyoung
p6617
(lp6618
I3308
aI3
asVUAW
p6619
(lp6620
I3309
aI8
asVSiemens
p6621
(lp6622
I3310
aI5
asVStep
p6623
(lp6624
I3311
aI8
asVMontreal
p6625
(lp6626
I3312
aI5
asVexcluded
p6627
(lp6628
I3313
aI5
asVstable
p6629
(lp6630
I3314
aI9
asVNot
p6631
(lp6632
I3315
aI3
asVkms
p6633
(lp6634
I3316
aI4
asV64
p6635
(lp6636
I3317
aI19
asVinclude
p6637
(lp6638
I3318
aI45
asVUAE
p6639
(lp6640
I3319
aI4
asVsent
p6641
(lp6642
I3320
aI8
asVinject
p6643
(lp6644
I3321
aI3
asVprobe
p6645
(lp6646
I3322
aI4
asVPrudential
p6647
(lp6648
I3323
aI6
asVCanadian
p6649
(lp6650
I3324
aI40
asVcontinues
p6651
(lp6652
I3325
aI10
asVtransponders
p6653
(lp6654
I3326
aI3
asVminers
p6655
(lp6656
I3327
aI5
asVMinisters
p6657
(lp6658
I3328
aI3
asVP
p6659
(lp6660
I3329
aI26
asVasset
p6661
(lp6662
I3330
aI10
asVgraphic
p6663
(lp6664
I3331
aI4
asVtelling
p6665
(lp6666
I3332
aI4
asVcontinued
p6667
(lp6668
I3333
aI28
asVcategories
p6669
(lp6670
I3334
aI3
asVarrange
p6671
(lp6672
I3335
aI4
asVentire
p6673
(lp6674
I3336
aI11
asVInvestors
p6675
(lp6676
I3337
aI6
asVpositions
p6677
(lp6678
I3338
aI9
asVnotes
p6679
(lp6680
I3339
aI39
asVshock
p6681
(lp6682
I3340
aI7
asVICCH
p6683
(lp6684
I3341
aI4
asVexcessive
p6685
(lp6686
I3342
aI4
asVtry
p6687
(lp6688
I3343
aI19
asVTalking
p6689
(lp6690
I3344
aI3
asVRepublicBank
p6691
(lp6692
I3345
aI4
asVminimizing
p6693
(lp6694
I3346
aI3
asVverdict
p6695
(lp6696
I3347
aI3
asVSpa
p6697
(lp6698
I3348
aI5
asVSeattle
p6699
(lp6700
I3349
aI3
asVnoted
p6701
(lp6702
I3350
aI35
asVHill
p6703
(lp6704
I3351
aI3
asVTurkey
p6705
(lp6706
I3352
aI3
asVsmaller
p6707
(lp6708
I3353
aI8
asVpledge
p6709
(lp6710
I3354
aI4
asVHoward
p6711
(lp6712
I3355
aI10
asVincurred
p6713
(lp6714
I3356
aI5
asVCurrently
p6715
(lp6716
I3357
aI4
asVcrop
p6717
(lp6718
I3358
aI16
asVunprofitable
p6719
(lp6720
I3359
aI5
asVjump
p6721
(lp6722
I3360
aI3
asVfold
p6723
(lp6724
I3361
aI3
asVState
p6725
(lp6726
I3362
aI32
asVBendectin
p6727
(lp6728
I3363
aI3
asVvideo
p6729
(lp6730
I3364
aI5
asVlicenses
p6731
(lp6732
I3365
aI5
asVwheat
p6733
(lp6734
I3366
aI44
asVacid
p6735
(lp6736
I3367
aI4
asVgrowers
p6737
(lp6738
I3368
aI5
asVweek
p6739
(lp6740
I3369
aI187
asVUSDA
p6741
(lp6742
I3370
aI13
asVindex
p6743
(lp6744
I3371
aI28
asVdeveloped
p6745
(lp6746
I3372
aI9
asVbusiness
p6747
(lp6748
I3373
aI80
asVrate
p6749
(lp6750
I3374
aI135
asVgiving
p6751
(lp6752
I3375
aI7
asVreaching
p6753
(lp6754
I3376
aI3
asVexpressed
p6755
(lp6756
I3377
aI7
asVaccess
p6757
(lp6758
I3378
aI15
asVWallis
p6759
(lp6760
I3379
aI8
asVvolatile
p6761
(lp6762
I3380
aI3
asVResources
p6763
(lp6764
I3381
aI9
asVmicroprocessor
p6765
(lp6766
I3382
aI4
asVmanufactured
p6767
(lp6768
I3383
aI3
asVBongard
p6769
(lp6770
I3384
aI3
asVfirms
p6771
(lp6772
I3385
aI45
asVAmerica
p6773
(lp6774
I3386
aI38
asVexercise
p6775
(lp6776
I3387
aI5
asVbody
p6777
(lp6778
I3388
aI6
asVcompletion
p6779
(lp6780
I3389
aI12
asVFutures
p6781
(lp6782
I3390
aI7
asVled
p6783
(lp6784
I3391
aI26
asVleg
p6785
(lp6786
I3392
aI3
asVNugget
p6787
(lp6788
I3393
aI3
asVrespectively
p6789
(lp6790
I3394
aI16
asV440
p6791
(lp6792
I3395
aI5
asVcommercial
p6793
(lp6794
I3396
aI64
asVjointly
p6795
(lp6796
I3397
aI4
asVPrior
p6797
(lp6798
I3398
aI4
asVlet
p6799
(lp6800
I3399
aI7
asVtotalled
p6801
(lp6802
I3400
aI13
asVunadjusted
p6803
(lp6804
I3401
aI4
asVconsideration
p6805
(lp6806
I3402
aI9
asVsoymeal
p6807
(lp6808
I3403
aI6
asVCommonwealth
p6809
(lp6810
I3404
aI7
asVgreat
p6811
(lp6812
I3405
aI5
asVengage
p6813
(lp6814
I3406
aI3
asVChinese
p6815
(lp6816
I3407
aI26
asVcts
p6817
(lp6818
I3408
aI138
asVreceive
p6819
(lp6820
I3409
aI29
asVinvolved
p6821
(lp6822
I3410
aI18
asVEnergy
p6823
(lp6824
I3411
aI9
asV30
p6825
(lp6826
I3412
aI94
asV37
p6827
(lp6828
I3413
aI20
asV36
p6829
(lp6830
I3414
aI20
asV35
p6831
(lp6832
I3415
aI51
asVArchive
p6833
(lp6834
I3416
aI3
asVengine
p6835
(lp6836
I3417
aI6
asVCBS
p6837
(lp6838
I3418
aI6
asVsurvey
p6839
(lp6840
I3419
aI10
asVNYMEX
p6841
(lp6842
I3420
aI8
asVdifficulty
p6843
(lp6844
I3421
aI5
asVArabia
p6845
(lp6846
I3422
aI16
asVopinion
p6847
(lp6848
I3423
aI3
asVclimb
p6849
(lp6850
I3424
aI3
asVmakes
p6851
(lp6852
I3425
aI12
asVmaker
p6853
(lp6854
I3426
aI4
asVStaff
p6855
(lp6856
I3427
aI8
asVexamining
p6857
(lp6858
I3428
aI3
asVnamed
p6859
(lp6860
I3429
aI16
asVREUTER
p6861
(lp6862
I3430
aI236
asVforesee
p6863
(lp6864
I3431
aI5
asVclaim
p6865
(lp6866
I3432
aI4
asV334
p6867
(lp6868
I3433
aI4
asVRobert
p6869
(lp6870
I3434
aI18
asVmanage
p6871
(lp6872
I3435
aI6
asVprivate
p6873
(lp6874
I3436
aI46
asVsurpluses
p6875
(lp6876
I3437
aI6
asVdecrease
p6877
(lp6878
I3438
aI12
asVprivately
p6879
(lp6880
I3439
aI5
asVManila
p6881
(lp6882
I3440
aI9
asVBrazilian
p6883
(lp6884
I3441
aI26
asVscandal
p6885
(lp6886
I3442
aI17
asVIndustrie
p6887
(lp6888
I3443
aI4
asVcomplex
p6889
(lp6890
I3444
aI4
asVSMC
p6891
(lp6892
I3445
aI10
asVmanipulate
p6893
(lp6894
I3446
aI3
asVstanding
p6895
(lp6896
I3447
aI4
asVconfidence
p6897
(lp6898
I3448
aI4
asVfee
p6899
(lp6900
I3449
aI10
asVLeucadia
p6901
(lp6902
I3450
aI7
asVfigure
p6903
(lp6904
I3451
aI13
asVcertificate
p6905
(lp6906
I3452
aI5
asVremains
p6907
(lp6908
I3453
aI11
asVministers
p6909
(lp6910
I3454
aI16
asVpredict
p6911
(lp6912
I3455
aI4
asVdoubt
p6913
(lp6914
I3456
aI5
asVestimated
p6915
(lp6916
I3457
aI44
asVsubsidized
p6917
(lp6918
I3458
aI7
asVvehicle
p6919
(lp6920
I3459
aI6
asVtiming
p6921
(lp6922
I3460
aI7
asVpanel
p6923
(lp6924
I3461
aI8
asVMemphis
p6925
(lp6926
I3462
aI5
asVsubsidies
p6927
(lp6928
I3463
aI12
asVmidday
p6929
(lp6930
I3464
aI3
asVBaglini
p6931
(lp6932
I3465
aI4
asVgained
p6933
(lp6934
I3466
aI3
asVMulti
p6935
(lp6936
I3467
aI8
asVLand
p6937
(lp6938
I3468
aI4
asVformally
p6939
(lp6940
I3469
aI4
asVstarted
p6941
(lp6942
I3470
aI19
asVBP
p6943
(lp6944
I3471
aI7
asVfactor
p6945
(lp6946
I3472
aI10
asVbenchmark
p6947
(lp6948
I3473
aI3
asVoccurred
p6949
(lp6950
I3474
aI4
asVreappointment
p6951
(lp6952
I3475
aI4
asVcooperate
p6953
(lp6954
I3476
aI5
asVdealings
p6955
(lp6956
I3477
aI3
asVcarrying
p6957
(lp6958
I3478
aI6
asVderegulate
p6959
(lp6960
I3479
aI3
asVsharply
p6961
(lp6962
I3480
aI8
asV8
p6963
(lp6964
I3481
aI234
asVarranging
p6965
(lp6966
I3482
aI3
asVdeparture
p6967
(lp6968
I3483
aI8
asVappointed
p6969
(lp6970
I3484
aI14
asVBache
p6971
(lp6972
I3485
aI4
asVcustomer
p6973
(lp6974
I3486
aI9
asVWedge
p6975
(lp6976
I3487
aI6
asVaccount
p6977
(lp6978
I3488
aI30
asVextension
p6979
(lp6980
I3489
aI6
asVeffectively
p6981
(lp6982
I3490
aI5
asVaveraged
p6983
(lp6984
I3491
aI7
asVTaiwanese
p6985
(lp6986
I3492
aI3
asVNTT
p6987
(lp6988
I3493
aI8
asVrecession
p6989
(lp6990
I3494
aI7
asVVideo
p6991
(lp6992
I3495
aI3
asVisland
p6993
(lp6994
I3496
aI5
asVaccrued
p6995
(lp6996
I3497
aI5
asVmeet
p6997
(lp6998
I3498
aI51
asVclosing
p6999
(lp7000
I3499
aI11
asVdropped
p7001
(lp7002
I3500
aI12
asVcontrol
p7003
(lp7004
I3501
aI39
asVFiat
p7005
(lp7006
I3502
aI4
asVtap
p7007
(lp7008
I3503
aI3
asVcouncil
p7009
(lp7010
I3504
aI23
asVNorthern
p7011
(lp7012
I3505
aI6
asVprocess
p7013
(lp7014
I3506
aI15
asVDutch
p7015
(lp7016
I3507
aI12
asVtax
p7017
(lp7018
I3508
aI110
asVpurposes
p7019
(lp7020
I3509
aI12
asVhigh
p7021
(lp7022
I3510
aI61
asVPioneer
p7023
(lp7024
I3511
aI3
asVreserves
p7025
(lp7026
I3512
aI52
asVMITI
p7027
(lp7028
I3513
aI5
asVsought
p7029
(lp7030
I3514
aI7
asVParty
p7031
(lp7032
I3515
aI8
asVAustralian
p7033
(lp7034
I3516
aI17
asVSeveral
p7035
(lp7036
I3517
aI5
asVmaturities
p7037
(lp7038
I3518
aI8
asVclothing
p7039
(lp7040
I3519
aI4
asVpurpose
p7041
(lp7042
I3520
aI7
asVreuter
p7043
(lp7044
I3521
aI3
asVIntermediate
p7045
(lp7046
I3522
aI3
asVcarries
p7047
(lp7048
I3523
aI4
asVarrangement
p7049
(lp7050
I3524
aI6
asVdelay
p7051
(lp7052
I3525
aI7
asVlocated
p7053
(lp7054
I3526
aI3
asVColeco
p7055
(lp7056
I3527
aI3
asVanimal
p7057
(lp7058
I3528
aI4
asVsuspend
p7059
(lp7060
I3529
aI4
asVSeasons
p7061
(lp7062
I3530
aI4
asVPayment
p7063
(lp7064
I3531
aI6
asVstock
p7065
(lp7066
I3532
aI196
asVbuildings
p7067
(lp7068
I3533
aI8
asVemployee
p7069
(lp7070
I3534
aI5
asVattend
p7071
(lp7072
I3535
aI5
asVfarm
p7073
(lp7074
I3536
aI28
asVA320
p7075
(lp7076
I3537
aI3
asVunderway
p7077
(lp7078
I3538
aI4
asVLocal
p7079
(lp7080
I3539
aI5
asVBritish
p7081
(lp7082
I3540
aI35
asVBiltmore
p7083
(lp7084
I3541
aI5
asVDOT
p7085
(lp7086
I3542
aI4
asVdiscard
p7087
(lp7088
I3543
aI3
asVoutlays
p7089
(lp7090
I3544
aI5
asVrequirements
p7091
(lp7092
I3545
aI12
asVintroduced
p7093
(lp7094
I3546
aI25
asVApple
p7095
(lp7096
I3547
aI20
asVlight
p7097
(lp7098
I3548
aI5
asVcounter
p7099
(lp7100
I3549
aI3
asVlines
p7101
(lp7102
I3550
aI12
asVResults
p7103
(lp7104
I3551
aI3
asVCommunity
p7105
(lp7106
I3552
aI19
asVOne
p7107
(lp7108
I3553
aI26
asVcommodities
p7109
(lp7110
I3554
aI7
asVchief
p7111
(lp7112
I3555
aI45
asVReserves
p7113
(lp7114
I3556
aI3
asVallow
p7115
(lp7116
I3557
aI17
asVbuoyant
p7117
(lp7118
I3558
aI5
asVsoftware
p7119
(lp7120
I3559
aI21
asVdiscussion
p7121
(lp7122
I3560
aI4
asVKeidanren
p7123
(lp7124
I3561
aI4
asVWilson
p7125
(lp7126
I3562
aI4
asVKaiser
p7127
(lp7128
I3563
aI5
asVlenders
p7129
(lp7130
I3564
aI10
asVproducer
p7131
(lp7132
I3565
aI24
asVinstitutional
p7133
(lp7134
I3566
aI7
asVHongkong
p7135
(lp7136
I3567
aI11
asVareas
p7137
(lp7138
I3568
aI21
asVcompeting
p7139
(lp7140
I3569
aI5
asVComputerland
p7141
(lp7142
I3570
aI6
asVdoubtful
p7143
(lp7144
I3571
aI3
asVproduced
p7145
(lp7146
I3572
aI10
asVPhillips
p7147
(lp7148
I3573
aI4
asVprolonged
p7149
(lp7150
I3574
aI3
asVincluding
p7151
(lp7152
I3575
aI57
asVAdministration
p7153
(lp7154
I3576
aI13
asVquake
p7155
(lp7156
I3577
aI3
asVOrganization
p7157
(lp7158
I3578
aI13
asVconverting
p7159
(lp7160
I3579
aI3
asV139
p7161
(lp7162
I3580
aI3
asV138
p7163
(lp7164
I3581
aI5
asVFinal
p7165
(lp7166
I3582
aI6
asVMatch
p7167
(lp7168
I3583
aI7
asVconcluded
p7169
(lp7170
I3584
aI5
asVindustries
p7171
(lp7172
I3585
aI20
asVregions
p7173
(lp7174
I3586
aI7
asVnegotiated
p7175
(lp7176
I3587
aI4
asVlb
p7177
(lp7178
I3588
aI5
asVScientific
p7179
(lp7180
I3589
aI4
asVExchange
p7181
(lp7182
I3590
aI66
asVchosen
p7183
(lp7184
I3591
aI4
asVShelf
p7185
(lp7186
I3592
aI3
asVll
p7187
(lp7188
I3593
aI4
asVlabor
p7189
(lp7190
I3594
aI7
asVDirector
p7191
(lp7192
I3595
aI6
asVwilling
p7193
(lp7194
I3596
aI9
asVcovered
p7195
(lp7196
I3597
aI6
asV2011
p7197
(lp7198
I3598
aI6
asVLBO
p7199
(lp7200
I3599
aI4
asVdesigns
p7201
(lp7202
I3600
aI5
asVgreater
p7203
(lp7204
I3601
aI11
asVMiami
p7205
(lp7206
I3602
aI4
asVauto
p7207
(lp7208
I3603
aI5
asVoutlined
p7209
(lp7210
I3604
aI3
asVpractice
p7211
(lp7212
I3605
aI4
asVearn
p7213
(lp7214
I3606
aI3
asVadversely
p7215
(lp7216
I3607
aI4
asVTwo
p7217
(lp7218
I3608
aI3
asVcutting
p7219
(lp7220
I3609
aI8
asVSocial
p7221
(lp7222
I3610
aI8
asVconsecutive
p7223
(lp7224
I3611
aI3
asV029
p7225
(lp7226
I3612
aI4
asVday
p7227
(lp7228
I3613
aI55
asVpresidential
p7229
(lp7230
I3614
aI5
asVsuccessor
p7231
(lp7232
I3615
aI3
asVPre
p7233
(lp7234
I3616
aI13
asVcocoa
p7235
(lp7236
I3617
aI10
asVAluminium
p7237
(lp7238
I3618
aI10
asVsubsidiaries
p7239
(lp7240
I3619
aI4
asVSan
p7241
(lp7242
I3620
aI11
asVYasuhiro
p7243
(lp7244
I3621
aI4
asVPoor
p7245
(lp7246
I3622
aI11
asVwarned
p7247
(lp7248
I3623
aI6
asVcountries
p7249
(lp7250
I3624
aI56
asVWorld
p7251
(lp7252
I3625
aI25
asVidentified
p7253
(lp7254
I3626
aI7
asVregistrations
p7255
(lp7256
I3627
aI4
asVmerge
p7257
(lp7258
I3628
aI6
asVslide
p7259
(lp7260
I3629
aI3
asVweather
p7261
(lp7262
I3630
aI8
asVshortage
p7263
(lp7264
I3631
aI12
asVPesch
p7265
(lp7266
I3632
aI24
asVaccompanied
p7267
(lp7268
I3633
aI4
asVbills
p7269
(lp7270
I3634
aI14
asVOver
p7271
(lp7272
I3635
aI3
asVAlbertson
p7273
(lp7274
I3636
aI3
asVStatistics
p7275
(lp7276
I3637
aI6
asVNetwork
p7277
(lp7278
I3638
aI6
asVdoing
p7279
(lp7280
I3639
aI11
asV700
p7281
(lp7282
I3640
aI20
asVrestructured
p7283
(lp7284
I3641
aI6
asVrelated
p7285
(lp7286
I3642
aI12
asV88
p7287
(lp7288
I3643
aI36
asVfrequency
p7289
(lp7290
I3644
aI3
asVMinneapolis
p7291
(lp7292
I3645
aI4
asVTreasury
p7293
(lp7294
I3646
aI61
asV82
p7295
(lp7296
I3647
aI10
asV83
p7297
(lp7298
I3648
aI7
asVmargins
p7299
(lp7300
I3649
aI6
asVPower
p7301
(lp7302
I3650
aI8
asVagriculture
p7303
(lp7304
I3651
aI17
asV87
p7305
(lp7306
I3652
aI40
asVspecial
p7307
(lp7308
I3653
aI32
asV85
p7309
(lp7310
I3654
aI21
asVdecision
p7311
(lp7312
I3655
aI26
asVhouse
p7313
(lp7314
I3656
aI5
asVinch
p7315
(lp7316
I3657
aI8
asVAgreement
p7317
(lp7318
I3658
aI7
asVwholly
p7319
(lp7320
I3659
aI11
asVChina
p7321
(lp7322
I3660
aI66
asVbarley
p7323
(lp7324
I3661
aI3
asVevacuation
p7325
(lp7326
I3662
aI5
asVclearing
p7327
(lp7328
I3663
aI5
asVelectronics
p7329
(lp7330
I3664
aI5
asVintervention
p7331
(lp7332
I3665
aI3
asVcause
p7333
(lp7334
I3666
aI16
asVintegrated
p7335
(lp7336
I3667
aI3
asVannounced
p7337
(lp7338
I3668
aI56
asVTEC
p7339
(lp7340
I3669
aI3
asVdisclose
p7341
(lp7342
I3670
aI8
asVfranc
p7343
(lp7344
I3671
aI27
asVCrosbie
p7345
(lp7346
I3672
aI3
asVapproached
p7347
(lp7348
I3673
aI5
asV581
p7349
(lp7350
I3674
aI3
asVThis
p7351
(lp7352
I3675
aI50
asVsouthern
p7353
(lp7354
I3676
aI6
asVrecommendations
p7355
(lp7356
I3677
aI7
asVdelegates
p7357
(lp7358
I3678
aI29
asVembassy
p7359
(lp7360
I3679
aI10
asVban
p7361
(lp7362
I3680
aI9
asVregulators
p7363
(lp7364
I3681
aI8
asVMiguel
p7365
(lp7366
I3682
aI3
asVregulatory
p7367
(lp7368
I3683
aI8
asV1982
p7369
(lp7370
I3684
aI5
asVFive
p7371
(lp7372
I3685
aI5
asV149
p7373
(lp7374
I3686
aI5
asVsteering
p7375
(lp7376
I3687
aI4
asVreceipts
p7377
(lp7378
I3688
aI4
asVresumed
p7379
(lp7380
I3689
aI3
asVallies
p7381
(lp7382
I3690
aI4
asVdetermining
p7383
(lp7384
I3691
aI4
asVHenske
p7385
(lp7386
I3692
aI4
asVArsenal
p7387
(lp7388
I3693
aI9
asVtimes
p7389
(lp7390
I3694
aI26
asVCurrency
p7391
(lp7392
I3695
aI4
asVlength
p7393
(lp7394
I3696
aI4
asVOnly
p7395
(lp7396
I3697
aI5
asVassumed
p7397
(lp7398
I3698
aI4
asVretain
p7399
(lp7400
I3699
aI7
asVretail
p7401
(lp7402
I3700
aI5
asVfacilitate
p7403
(lp7404
I3701
aI4
asVstimulate
p7405
(lp7406
I3702
aI3
asVDavid
p7407
(lp7408
I3703
aI12
asVlosses
p7409
(lp7410
I3704
aI27
asVprospective
p7411
(lp7412
I3705
aI3
asVplastics
p7413
(lp7414
I3706
aI3
asV450
p7415
(lp7416
I3707
aI8
asVpowerful
p7417
(lp7418
I3708
aI3
asVBurdett
p7419
(lp7420
I3709
aI6
asV456
p7421
(lp7422
I3710
aI3
asVstrategic
p7423
(lp7424
I3711
aI8
asVimproving
p7425
(lp7426
I3712
aI8
asVProgram
p7427
(lp7428
I3713
aI3
asVlagging
p7429
(lp7430
I3714
aI3
asVowner
p7431
(lp7432
I3715
aI4
asVmandatory
p7433
(lp7434
I3716
aI3
asVblows
p7435
(lp7436
I3717
aI3
asVawarded
p7437
(lp7438
I3718
aI8
asVquality
p7439
(lp7440
I3719
aI10
asVstraight
p7441
(lp7442
I3720
aI9
asVPharma
p7443
(lp7444
I3721
aI7
asVmanagement
p7445
(lp7446
I3722
aI65
asVIran
p7447
(lp7448
I3723
aI31
asVDistrict
p7449
(lp7450
I3724
aI4
asVEastern
p7451
(lp7452
I3725
aI8
asVFarm
p7453
(lp7454
I3726
aI4
asVnomination
p7455
(lp7456
I3727
aI12
asVdurable
p7457
(lp7458
I3728
aI3
asVadopted
p7459
(lp7460
I3729
aI6
asVCoast
p7461
(lp7462
I3730
aI6
asVpriority
p7463
(lp7464
I3731
aI3
asVattack
p7465
(lp7466
I3732
aI3
asVNUM
p7467
(lp7468
I3733
aI3
asVBrokers
p7469
(lp7470
I3734
aI3
asVAutomated
p7471
(lp7472
I3735
aI3
asVdeveloper
p7473
(lp7474
I3736
aI3
asVrigs
p7475
(lp7476
I3737
aI13
asVIraq
p7477
(lp7478
I3738
aI16
asVfinal
p7479
(lp7480
I3739
aI29
asVAssociation
p7481
(lp7482
I3740
aI30
asVsmelting
p7483
(lp7484
I3741
aI4
asVinterests
p7485
(lp7486
I3742
aI13
asVKa
p7487
(lp7488
I3743
aI3
asVEckenfelder
p7489
(lp7490
I3744
aI3
asVvigorous
p7491
(lp7492
I3745
aI3
asVPlenty
p7493
(lp7494
I3746
aI5
asVshelf
p7495
(lp7496
I3747
aI7
asVcompleted
p7497
(lp7498
I3748
aI35
asVexactly
p7499
(lp7500
I3749
aI5
asVchemicals
p7501
(lp7502
I3750
aI8
asVR
p7503
(lp7504
I3751
aI24
asVLIBOR
p7505
(lp7506
I3752
aI17
asVDemocratic
p7507
(lp7508
I3753
aI10
asVsteel
p7509
(lp7510
I3754
aI19
asVresist
p7511
(lp7512
I3755
aI4
asVbid
p7513
(lp7514
I3756
aI46
asVcommodity
p7515
(lp7516
I3757
aI9
asVminister
p7517
(lp7518
I3758
aI12
asVsubmitted
p7519
(lp7520
I3759
aI8
asVlimiting
p7521
(lp7522
I3760
aI6
asVcompensation
p7523
(lp7524
I3761
aI8
asVdefense
p7525
(lp7526
I3762
aI4
asVSeries
p7527
(lp7528
I3763
aI4
asVbriefing
p7529
(lp7530
I3764
aI3
asVvisited
p7531
(lp7532
I3765
aI3
asVZaire
p7533
(lp7534
I3766
aI8
asVproviding
p7535
(lp7536
I3767
aI3
asVbet
p7537
(lp7538
I3768
aI3
asVresult
p7539
(lp7540
I3769
aI45
asVberths
p7541
(lp7542
I3770
aI3
asVInformation
p7543
(lp7544
I3771
aI3
asVAAA
p7545
(lp7546
I3772
aI4
asVRichard
p7547
(lp7548
I3773
aI14
asV189
p7549
(lp7550
I3774
aI3
asVunchanged
p7551
(lp7552
I3775
aI21
asVpartnership
p7553
(lp7554
I3776
aI12
asVKokan
p7555
(lp7556
I3777
aI3
asVtonight
p7557
(lp7558
I3778
aI4
asVOther
p7559
(lp7560
I3779
aI15
asVunlikely
p7561
(lp7562
I3780
aI14
asVdictate
p7563
(lp7564
I3781
aI3
asVneed
p7565
(lp7566
I3782
aI37
asVfacing
p7567
(lp7568
I3783
aI9
asVturn
p7569
(lp7570
I3784
aI6
asVapparently
p7571
(lp7572
I3785
aI3
asVclearly
p7573
(lp7574
I3786
aI7
asVPan
p7575
(lp7576
I3787
aI6
asVDevelopment
p7577
(lp7578
I3788
aI13
asVdocuments
p7579
(lp7580
I3789
aI9
asVsmallest
p7581
(lp7582
I3790
aI5
asVbrokers
p7583
(lp7584
I3791
aI18
asV150
p7585
(lp7586
I3792
aI23
asV0000
p7587
(lp7588
I3793
aI5
asVstudying
p7589
(lp7590
I3794
aI5
asVagency
p7591
(lp7592
I3795
aI27
asVable
p7593
(lp7594
I3796
aI14
asVmid
p7595
(lp7596
I3797
aI20
asVpurchasing
p7597
(lp7598
I3798
aI6
asVFluor
p7599
(lp7600
I3799
aI3
asV320
p7601
(lp7602
I3800
aI5
asVissuing
p7603
(lp7604
I3801
aI26
asVdeclined
p7605
(lp7606
I3802
aI39
asVSanta
p7607
(lp7608
I3803
aI5
asV325
p7609
(lp7610
I3804
aI3
asVreactions
p7611
(lp7612
I3805
aI3
asVLeslie
p7613
(lp7614
I3806
aI6
asV328
p7615
(lp7616
I3807
aI4
asVsubject
p7617
(lp7618
I3808
aI26
asVworldwide
p7619
(lp7620
I3809
aI20
asVcriteria
p7621
(lp7622
I3810
aI5
asVPierce
p7623
(lp7624
I3811
aI4
asV56
p7625
(lp7626
I3812
aI14
asVunless
p7627
(lp7628
I3813
aI8
asVexpires
p7629
(lp7630
I3814
aI11
asV00
p7631
(lp7632
I3815
aI15
asVcallable
p7633
(lp7634
I3816
aI11
asVsaid
p7635
(lp7636
I3817
aI2470
asVFinance
p7637
(lp7638
I3818
aI51
asVpreliminary
p7639
(lp7640
I3819
aI11
asVdevice
p7641
(lp7642
I3820
aI4
asVcapacity
p7643
(lp7644
I3821
aI26
asVsegment
p7645
(lp7646
I3822
aI5
asVAsked
p7647
(lp7648
I3823
aI10
asVReserve
p7649
(lp7650
I3824
aI29
asVvolume
p7651
(lp7652
I3825
aI24
asVplacement
p7653
(lp7654
I3826
aI5
asVreduces
p7655
(lp7656
I3827
aI3
asVconsequences
p7657
(lp7658
I3828
aI3
asVwon
p7659
(lp7660
I3829
aI12
asVenthusiastic
p7661
(lp7662
I3830
aI3
asVstronger
p7663
(lp7664
I3831
aI4
asVquestioned
p7665
(lp7666
I3832
aI3
asVdollar
p7667
(lp7668
I3833
aI62
asVface
p7669
(lp7670
I3834
aI12
asVHigh
p7671
(lp7672
I3835
aI4
asVDonald
p7673
(lp7674
I3836
aI8
asVlowered
p7675
(lp7676
I3837
aI11
asVExport
p7677
(lp7678
I3838
aI4
asVMCV
p7679
(lp7680
I3839
aI5
asVeurobonds
p7681
(lp7682
I3840
aI6
asV08
p7683
(lp7684
I3841
aI6
asVfact
p7685
(lp7686
I3842
aI4
asVimpression
p7687
(lp7688
I3843
aI3
asVexclusive
p7689
(lp7690
I3844
aI6
asVParis
p7691
(lp7692
I3845
aI11
asVagreed
p7693
(lp7694
I3846
aI88
asVsupported
p7695
(lp7696
I3847
aI6
asVterminate
p7697
(lp7698
I3848
aI4
asVChemical
p7699
(lp7700
I3849
aI17
asVbring
p7701
(lp7702
I3850
aI14
asVkits
p7703
(lp7704
I3851
aI3
asVContel
p7705
(lp7706
I3852
aI4
asVUnder
p7707
(lp7708
I3853
aI28
asVRegan
p7709
(lp7710
I3854
aI25
asVWaste
p7711
(lp7712
I3855
aI8
asVeconomist
p7713
(lp7714
I3856
aI13
asVPublic
p7715
(lp7716
I3857
aI6
asVdecade
p7717
(lp7718
I3858
aI3
asVprincipal
p7719
(lp7720
I3859
aI23
asVpartners
p7721
(lp7722
I3860
aI10
asVpromote
p7723
(lp7724
I3861
aI6
asVbased
p7725
(lp7726
I3862
aI67
asVUnderwriters
p7727
(lp7728
I3863
aI6
asVMeanwhile
p7729
(lp7730
I3864
aI4
asVholder
p7731
(lp7732
I3865
aI7
asVcontrols
p7733
(lp7734
I3866
aI12
asVchipmakers
p7735
(lp7736
I3867
aI3
asVterminal
p7737
(lp7738
I3868
aI5
asVentities
p7739
(lp7740
I3869
aI4
asVplanted
p7741
(lp7742
I3870
aI3
asVtape
p7743
(lp7744
I3871
aI4
asVYork
p7745
(lp7746
I3872
aI74
asVUltramar
p7747
(lp7748
I3873
aI4
asVfuel
p7749
(lp7750
I3874
aI9
asVemployed
p7751
(lp7752
I3875
aI3
asVthousands
p7753
(lp7754
I3876
aI5
asVhope
p7755
(lp7756
I3877
aI10
asVmeant
p7757
(lp7758
I3878
aI6
asVadvisory
p7759
(lp7760
I3879
aI14
asVbonds
p7761
(lp7762
I3880
aI82
asVSmith
p7763
(lp7764
I3881
aI9
asVoverall
p7765
(lp7766
I3882
aI21
asVpave
p7767
(lp7768
I3883
aI4
asVvehicles
p7769
(lp7770
I3884
aI13
asV120
p7771
(lp7772
I3885
aI11
asVCoal
p7773
(lp7774
I3886
aI3
asV122
p7775
(lp7776
I3887
aI3
asV124
p7777
(lp7778
I3888
aI3
asV125
p7779
(lp7780
I3889
aI13
asVexchanges
p7781
(lp7782
I3890
aI12
asVbuyer
p7783
(lp7784
I3891
aI3
asVLeasing
p7785
(lp7786
I3892
aI3
asVIslands
p7787
(lp7788
I3893
aI5
asVRiver
p7789
(lp7790
I3894
aI9
asVprocedures
p7791
(lp7792
I3895
aI4
asVItalian
p7793
(lp7794
I3896
aI13
asVfollowing
p7795
(lp7796
I3897
aI27
asVshr
p7797
(lp7798
I3898
aI30
asVBecause
p7799
(lp7800
I3899
aI7
asVtobacco
p7801
(lp7802
I3900
aI7
asVhiring
p7803
(lp7804
I3901
aI5
asVNew
p7805
(lp7806
I3902
aI118
asV362
p7807
(lp7808
I3903
aI3
asVcomprising
p7809
(lp7810
I3904
aI5
asVtaxes
p7811
(lp7812
I3905
aI9
asVEurofer
p7813
(lp7814
I3906
aI3
asVallocate
p7815
(lp7816
I3907
aI3
asV130
p7817
(lp7818
I3908
aI8
asVBoth
p7819
(lp7820
I3909
aI13
asVdangerous
p7821
(lp7822
I3910
aI3
asV137
p7823
(lp7824
I3911
aI5
asVfixed
p7825
(lp7826
I3912
aI14
asVview
p7827
(lp7828
I3913
aI11
asVBurnham
p7829
(lp7830
I3914
aI4
asVrequirement
p7831
(lp7832
I3915
aI12
asVqtr
p7833
(lp7834
I3916
aI12
asV135
p7835
(lp7836
I3917
aI4
asVacquired
p7837
(lp7838
I3918
aI34
asVnational
p7839
(lp7840
I3919
aI15
asVcuts
p7841
(lp7842
I3920
aI11
asVC
p7843
(lp7844
I3921
aI23
asVAlaska
p7845
(lp7846
I3922
aI4
asVoperates
p7847
(lp7848
I3923
aI10
asVTraders
p7849
(lp7850
I3924
aI6
asVCRA
p7851
(lp7852
I3925
aI12
asVchanges
p7853
(lp7854
I3926
aI22
asVenhanced
p7855
(lp7856
I3927
aI3
asVagricultural
p7857
(lp7858
I3928
aI18
asVoperated
p7859
(lp7860
I3929
aI3
asVCentral
p7861
(lp7862
I3930
aI15
asVbidders
p7863
(lp7864
I3931
aI4
asVWhite
p7865
(lp7866
I3932
aI31
asVtextiles
p7867
(lp7868
I3933
aI7
asVcloser
p7869
(lp7870
I3934
aI3
asVWisconsin
p7871
(lp7872
I3935
aI4
asVextend
p7873
(lp7874
I3936
aI4
asVattempting
p7875
(lp7876
I3937
aI3
asVnuclear
p7877
(lp7878
I3938
aI6
asVPC
p7879
(lp7880
I3939
aI17
asVstate
p7881
(lp7882
I3940
aI47
asVconverted
p7883
(lp7884
I3941
aI5
asVdirectors
p7885
(lp7886
I3942
aI19
asVcrude
p7887
(lp7888
I3943
aI29
asVprogress
p7889
(lp7890
I3944
aI13
asVJuly
p7891
(lp7892
I3945
aI35
asVRepublican
p7893
(lp7894
I3946
aI15
asVSESDAQ
p7895
(lp7896
I3947
aI3
asVsold
p7897
(lp7898
I3948
aI51
asVmidnight
p7899
(lp7900
I3949
aI5
asVbought
p7901
(lp7902
I3950
aI27
asVends
p7903
(lp7904
I3951
aI4
asVvarious
p7905
(lp7906
I3952
aI9
asVability
p7907
(lp7908
I3953
aI17
asVsuperior
p7909
(lp7910
I3954
aI3
asVEFP
p7911
(lp7912
I3955
aI3
asVArgentina
p7913
(lp7914
I3956
aI26
asVagencies
p7915
(lp7916
I3957
aI20
asVS
p7917
(lp7918
I3958
aI427
asVtakeover
p7919
(lp7920
I3959
aI26
asVkey
p7921
(lp7922
I3960
aI19
asVapproval
p7923
(lp7924
I3961
aI47
asVdenomination
p7925
(lp7926
I3962
aI3
asVoptional
p7927
(lp7928
I3963
aI4
asVproblem
p7929
(lp7930
I3964
aI28
asVdeclining
p7931
(lp7932
I3965
aI10
asVMacintosh
p7933
(lp7934
I3966
aI19
asVrestrictions
p7935
(lp7936
I3967
aI10
asVAvg
p7937
(lp7938
I3968
aI14
asVAegean
p7939
(lp7940
I3969
aI3
asVlimits
p7941
(lp7942
I3970
aI5
asVleveraged
p7943
(lp7944
I3971
aI5
asVinvited
p7945
(lp7946
I3972
aI3
asVdeficits
p7947
(lp7948
I3973
aI5
asVdrug
p7949
(lp7950
I3974
aI23
asVInsurance
p7951
(lp7952
I3975
aI15
asVSaatchi
p7953
(lp7954
I3976
aI4
asVfigures
p7955
(lp7956
I3977
aI41
asVQuebec
p7957
(lp7958
I3978
aI10
asVauctions
p7959
(lp7960
I3979
aI4
asVcandidates
p7961
(lp7962
I3980
aI5
asVRexnord
p7963
(lp7964
I3981
aI11
asVcomment
p7965
(lp7966
I3982
aI25
asVstrongly
p7967
(lp7968
I3983
aI5
asVadjusted
p7969
(lp7970
I3984
aI27
asVundermined
p7971
(lp7972
I3985
aI3
asVdiplomats
p7973
(lp7974
I3986
aI4
asV386
p7975
(lp7976
I3987
aI4
asVshipment
p7977
(lp7978
I3988
aI11
asVLuxembourg
p7979
(lp7980
I3989
aI10
asVpackaging
p7981
(lp7982
I3990
aI4
asVLos
p7983
(lp7984
I3991
aI12
asVtable
p7985
(lp7986
I3992
aI3
asVallocated
p7987
(lp7988
I3993
aI7
asVacres
p7989
(lp7990
I3994
aI5
asVDrug
p7991
(lp7992
I3995
aI4
asVTemple
p7993
(lp7994
I3996
aI3
asVct
p7995
(lp7996
I3997
aI4
asVRevenues
p7997
(lp7998
I3998
aI4
asVaddition
p7999
(lp8000
I3999
aI16
asVquotas
p8001
(lp8002
I4000
aI43
asVcent
p8003
(lp8004
I4001
aI25
asVoffers
p8005
(lp8006
I4002
aI11
asVagreements
p8007
(lp8008
I4003
aI12
asVentitle
p8009
(lp8010
I4004
aI6
asVColorado
p8011
(lp8012
I4005
aI4
asVAziz
p8013
(lp8014
I4006
aI5
asVThailand
p8015
(lp8016
I4007
aI14
asVproposal
p8017
(lp8018
I4008
aI50
asVimprove
p8019
(lp8020
I4009
aI16
asVclosed
p8021
(lp8022
I4010
aI23
asVExxon
p8023
(lp8024
I4011
aI4
asVcorresponding
p8025
(lp8026
I4012
aI4
asVNECO
p8027
(lp8028
I4013
aI3
asVIncome
p8029
(lp8030
I4014
aI3
asV467
p8031
(lp8032
I4015
aI3
asVfarmer
p8033
(lp8034
I4016
aI3
asVal
p8035
(lp8036
I4017
aI10
asVBenson
p8037
(lp8038
I4018
aI3
asVFinanciere
p8039
(lp8040
I4019
aI3
asVexpenditure
p8041
(lp8042
I4020
aI11
asVdeep
p8043
(lp8044
I4021
aI6
asVgraphics
p8045
(lp8046
I4022
aI3
asVtangible
p8047
(lp8048
I4023
aI3
asVDeng
p8049
(lp8050
I4024
aI3
asVpresent
p8051
(lp8052
I4025
aI33
asVAnd
p8053
(lp8054
I4026
aI20
asVdivisions
p8055
(lp8056
I4027
aI3
asVdebtor
p8057
(lp8058
I4028
aI6
asVmain
p8059
(lp8060
I4029
aI21
asVForce
p8061
(lp8062
I4030
aI3
asVabandoned
p8063
(lp8064
I4031
aI3
asVunlike
p8065
(lp8066
I4032
aI3
asVvalue
p8067
(lp8068
I4033
aI54
asVGeneral
p8069
(lp8070
I4034
aI24
asVOECD
p8071
(lp8072
I4035
aI13
asVPLC
p8073
(lp8074
I4036
aI13
asVpending
p8075
(lp8076
I4037
aI5
asVowns
p8077
(lp8078
I4038
aI22
asVHong
p8079
(lp8080
I4039
aI22
asVBlockbuster
p8081
(lp8082
I4040
aI4
asVLotus
p8083
(lp8084
I4041
aI6
asVnegotiating
p8085
(lp8086
I4042
aI11
asVsupply
p8087
(lp8088
I4043
aI35
asVgroup
p8089
(lp8090
I4044
aI111
asVve
p8091
(lp8092
I4045
aI5
asVJacoby
p8093
(lp8094
I4046
aI3
asVShanghai
p8095
(lp8096
I4047
aI3
asVsite
p8097
(lp8098
I4048
aI3
asVImperial
p8099
(lp8100
I4049
aI6
asVhardware
p8101
(lp8102
I4050
aI3
asVdraining
p8103
(lp8104
I4051
aI6
asVvs
p8105
(lp8106
I4052
aI179
asVKerin
p8107
(lp8108
I4053
aI4
asVoptimistic
p8109
(lp8110
I4054
aI9
asVdual
p8111
(lp8112
I4055
aI7
asVclaimed
p8113
(lp8114
I4056
aI3
asVpartner
p8115
(lp8116
I4057
aI3
asVYou
p8117
(lp8118
I4058
aI5
asVforeign
p8119
(lp8120
I4059
aI101
asVfinance
p8121
(lp8122
I4060
aI35
asVproductivity
p8123
(lp8124
I4061
aI10
asVadmitted
p8125
(lp8126
I4062
aI3
asVbegan
p8127
(lp8128
I4063
aI15
asVMobil
p8129
(lp8130
I4064
aI11
asVadministration
p8131
(lp8132
I4065
aI28
asVSupermac
p8133
(lp8134
I4066
aI3
asVproceeds
p8135
(lp8136
I4067
aI22
asVBangkok
p8137
(lp8138
I4068
aI4
asVNestle
p8139
(lp8140
I4069
aI4
asVSorg
p8141
(lp8142
I4070
aI3
asVmolded
p8143
(lp8144
I4071
aI3
asVIV
p8145
(lp8146
I4072
aI5
asVflour
p8147
(lp8148
I4073
aI4
asVunderground
p8149
(lp8150
I4074
aI3
asVparty
p8151
(lp8152
I4075
aI12
asVnegotiate
p8153
(lp8154
I4076
aI10
asVdifficult
p8155
(lp8156
I4077
aI20
asVtighten
p8157
(lp8158
I4078
aI8
asVmaterial
p8159
(lp8160
I4079
aI3
asVPemex
p8161
(lp8162
I4080
aI4
asVANR
p8163
(lp8164
I4081
aI3
asVEurosterling
p8165
(lp8166
I4082
aI3
asVMedical
p8167
(lp8168
I4083
aI26
asVreporting
p8169
(lp8170
I4084
aI14
asVnationally
p8171
(lp8172
I4085
aI3
asVforecasts
p8173
(lp8174
I4086
aI10
asVAirport
p8175
(lp8176
I4087
aI5
asVissuance
p8177
(lp8178
I4088
aI3
asVNationale
p8179
(lp8180
I4089
aI5
asVcontribution
p8181
(lp8182
I4090
aI6
asVexpand
p8183
(lp8184
I4091
aI22
asVHouston
p8185
(lp8186
I4092
aI6
asVtransaction
p8187
(lp8188
I4093
aI26
asVdiscounted
p8189
(lp8190
I4094
aI3
asVcenter
p8191
(lp8192
I4095
aI6
asVfully
p8193
(lp8194
I4096
aI10
asVSenate
p8195
(lp8196
I4097
aI18
asV49
p8197
(lp8198
I4098
aI16
asVsyndicated
p8199
(lp8200
I4099
aI7
asVRiverin
p8201
(lp8202
I4100
aI3
asVMerrell
p8203
(lp8204
I4101
aI7
asVcommand
p8205
(lp8206
I4102
aI4
asV350
p8207
(lp8208
I4103
aI10
asVposition
p8209
(lp8210
I4104
aI27
asVdiversify
p8211
(lp8212
I4105
aI3
asVTotal
p8213
(lp8214
I4106
aI11
asVdrawing
p8215
(lp8216
I4107
aI4
asVShe
p8217
(lp8218
I4108
aI9
asVupgraded
p8219
(lp8220
I4109
aI3
asV45
p8221
(lp8222
I4110
aI27
asVnewest
p8223
(lp8224
I4111
aI3
asVrestructure
p8225
(lp8226
I4112
aI3
asVBB
p8227
(lp8228
I4113
aI4
asVPittston
p8229
(lp8230
I4114
aI7
asVincreasingly
p8231
(lp8232
I4115
aI10
asVoffensive
p8233
(lp8234
I4116
aI4
asVhands
p8235
(lp8236
I4117
aI8
asVdomestic
p8237
(lp8238
I4118
aI64
asVobtain
p8239
(lp8240
I4119
aI8
asVsources
p8241
(lp8242
I4120
aI109
asVSunday
p8243
(lp8244
I4121
aI14
asVunderlying
p8245
(lp8246
I4122
aI6
asVdistant
p8247
(lp8248
I4123
aI3
asVChairman
p8249
(lp8250
I4124
aI20
asVCamdessus
p8251
(lp8252
I4125
aI4
asVWrather
p8253
(lp8254
I4126
aI3
asVArgentine
p8255
(lp8256
I4127
aI7
asVBahrain
p8257
(lp8258
I4128
aI11
asVDAT
p8259
(lp8260
I4129
aI8
asVrapid
p8261
(lp8262
I4130
aI3
asVCedel
p8263
(lp8264
I4131
aI4
asVfield
p8265
(lp8266
I4132
aI4
asVGMAC
p8267
(lp8268
I4133
aI4
asVCompany
p8269
(lp8270
I4134
aI13
asVheaded
p8271
(lp8272
I4135
aI3
asVdeposits
p8273
(lp8274
I4136
aI24
asVcapabilities
p8275
(lp8276
I4137
aI3
asVrebate
p8277
(lp8278
I4138
aI4
asVarrest
p8279
(lp8280
I4139
aI3
asVadd
p8281
(lp8282
I4140
aI12
asVbook
p8283
(lp8284
I4141
aI5
asVdevelopments
p8285
(lp8286
I4142
aI7
asVDespite
p8287
(lp8288
I4143
aI6
asVusage
p8289
(lp8290
I4144
aI12
asV5
p8291
(lp8292
I4145
aI298
asVenacted
p8293
(lp8294
I4146
aI3
asVwarrant
p8295
(lp8296
I4147
aI11
asVBy
p8297
(lp8298
I4148
aI7
asVJustice
p8299
(lp8300
I4149
aI3
asV286
p8301
(lp8302
I4150
aI3
asVresolved
p8303
(lp8304
I4151
aI4
asVkilo
p8305
(lp8306
I4152
aI7
asVincreased
p8307
(lp8308
I4153
aI42
asVprovisions
p8309
(lp8310
I4154
aI5
asVgovernment
p8311
(lp8312
I4155
aI212
asVchecking
p8313
(lp8314
I4156
aI6
asVCavendish
p8315
(lp8316
I4157
aI7
asVcrushed
p8317
(lp8318
I4158
aI3
asVShipping
p8319
(lp8320
I4159
aI3
asVfats
p8321
(lp8322
I4160
aI4
asVAmong
p8323
(lp8324
I4161
aI5
asVincreases
p8325
(lp8326
I4162
aI15
asV260
p8327
(lp8328
I4163
aI4
asVT
p8329
(lp8330
I4164
aI9
asVburden
p8331
(lp8332
I4165
aI4
asVpress
p8333
(lp8334
I4166
aI23
asVimmediately
p8335
(lp8336
I4167
aI16
asVloss
p8337
(lp8338
I4168
aI100
asVManufacturing
p8339
(lp8340
I4169
aI5
asVEngland
p8341
(lp8342
I4170
aI18
asVlike
p8343
(lp8344
I4171
aI20
asVexcluding
p8345
(lp8346
I4172
aI6
asVPharmaceuticals
p8347
(lp8348
I4173
aI7
asVDealing
p8349
(lp8350
I4174
aI3
asVWithin
p8351
(lp8352
I4175
aI5
asVSaturday
p8353
(lp8354
I4176
aI15
asVCheung
p8355
(lp8356
I4177
aI7
asVtraders
p8357
(lp8358
I4178
aI24
asVpayments
p8359
(lp8360
I4179
aI57
asVlose
p8361
(lp8362
I4180
aI7
asVPolish
p8363
(lp8364
I4181
aI3
asVworks
p8365
(lp8366
I4182
aI8
asVsoft
p8367
(lp8368
I4183
aI6
asVpage
p8369
(lp8370
I4184
aI3
asVBoard
p8371
(lp8372
I4185
aI23
asVshed
p8373
(lp8374
I4186
aI3
asVeased
p8375
(lp8376
I4187
aI5
asVeurobond
p8377
(lp8378
I4188
aI14
asV983
p8379
(lp8380
I4189
aI3
asVdifficulties
p8381
(lp8382
I4190
aI7
asVKidder
p8383
(lp8384
I4191
aI7
asVEEP
p8385
(lp8386
I4192
aI5
asVauthority
p8387
(lp8388
I4193
aI8
asV117
p8389
(lp8390
I4194
aI4
asVgrowth
p8391
(lp8392
I4195
aI98
asVexport
p8393
(lp8394
I4196
aI87
asV110
p8395
(lp8396
I4197
aI6
asVcommitments
p8397
(lp8398
I4198
aI5
asVrecommendation
p8399
(lp8400
I4199
aI7
asVcopra
p8401
(lp8402
I4200
aI5
asVhome
p8403
(lp8404
I4201
aI9
asVempire
p8405
(lp8406
I4202
aI3
asVBrodersen
p8407
(lp8408
I4203
aI3
asVsuspension
p8409
(lp8410
I4204
aI10
asVtransport
p8411
(lp8412
I4205
aI6
asVinvestor
p8413
(lp8414
I4206
aI11
asVCoffee
p8415
(lp8416
I4207
aI22
asVlead
p8417
(lp8418
I4208
aI40
asVSingapore
p8419
(lp8420
I4209
aI23
asVbroad
p8421
(lp8422
I4210
aI9
asVavoid
p8423
(lp8424
I4211
aI11
asVOSR
p8425
(lp8426
I4212
aI3
asVHowever
p8427
(lp8428
I4213
aI35
asVsalaries
p8429
(lp8430
I4214
aI4
asVPeople
p8431
(lp8432
I4215
aI3
asVprofitable
p8433
(lp8434
I4216
aI11
asVdoes
p8435
(lp8436
I4217
aI38
asVsalaried
p8437
(lp8438
I4218
aI8
asVleader
p8439
(lp8440
I4219
aI14
asVindicated
p8441
(lp8442
I4220
aI16
asVschedule
p8443
(lp8444
I4221
aI9
asVBaker
p8445
(lp8446
I4222
aI32
asVOfficial
p8447
(lp8448
I4223
aI7
asVmonetary
p8449
(lp8450
I4224
aI6
asVexpansion
p8451
(lp8452
I4225
aI17
asVpressure
p8453
(lp8454
I4226
aI26
asVexpire
p8455
(lp8456
I4227
aI6
asVTimes
p8457
(lp8458
I4228
aI8
asVoffset
p8459
(lp8460
I4229
aI11
asVloans
p8461
(lp8462
I4230
aI44
asVMicrosoft
p8463
(lp8464
I4231
aI4
asVstage
p8465
(lp8466
I4232
aI5
asVpayout
p8467
(lp8468
I4233
aI4
asVactual
p8469
(lp8470
I4234
aI8
asVboards
p8471
(lp8472
I4235
aI3
asVDlrs
p8473
(lp8474
I4236
aI23
asVdebentures
p8475
(lp8476
I4237
aI29
asVprocessors
p8477
(lp8478
I4238
aI6
asVPte
p8479
(lp8480
I4239
aI3
asVPeabody
p8481
(lp8482
I4240
aI5
asVurged
p8483
(lp8484
I4241
aI6
asVsurge
p8485
(lp8486
I4242
aI8
asVcompatible
p8487
(lp8488
I4243
aI5
asVholdings
p8489
(lp8490
I4244
aI10
asVfear
p8491
(lp8492
I4245
aI4
asVcarrier
p8493
(lp8494
I4246
aI3
asVUK
p8495
(lp8496
I4247
aI3
asVBuick
p8497
(lp8498
I4248
aI3
asV160
p8499
(lp8500
I4249
aI6
asVJapan
p8501
(lp8502
I4250
aI81
asVconcession
p8503
(lp8504
I4251
aI10
asVprevailing
p8505
(lp8506
I4252
aI3
asVparticipants
p8507
(lp8508
I4253
aI5
asVexecutives
p8509
(lp8510
I4254
aI3
asVequally
p8511
(lp8512
I4255
aI4
asVletters
p8513
(lp8514
I4256
aI4
asVpreviously
p8515
(lp8516
I4257
aI28
asVwarrants
p8517
(lp8518
I4258
aI25
asVcommitment
p8519
(lp8520
I4259
aI14
asVgetting
p8521
(lp8522
I4260
aI6
asVassess
p8523
(lp8524
I4261
aI3
asVIraqi
p8525
(lp8526
I4262
aI7
asVguard
p8527
(lp8528
I4263
aI3
asVLabour
p8529
(lp8530
I4264
aI11
asVregistration
p8531
(lp8532
I4265
aI7
asVroads
p8533
(lp8534
I4266
aI3
asVquiet
p8535
(lp8536
I4267
aI3
asVinitially
p8537
(lp8538
I4268
aI12
asVHenderson
p8539
(lp8540
I4269
aI10
asVutility
p8541
(lp8542
I4270
aI8
asV1986
p8543
(lp8544
I4271
aI266
asVterminated
p8545
(lp8546
I4272
aI3
asV1984
p8547
(lp8548
I4273
aI29
asV1985
p8549
(lp8550
I4274
aI165
asVaccused
p8551
(lp8552
I4275
aI4
asVadditional
p8553
(lp8554
I4276
aI24
asV1980
p8555
(lp8556
I4277
aI3
asVLawrence
p8557
(lp8558
I4278
aI4
asVtransfer
p8559
(lp8560
I4279
aI14
asVhousing
p8561
(lp8562
I4280
aI3
asVreduction
p8563
(lp8564
I4281
aI17
asV1988
p8565
(lp8566
I4282
aI51
asV1989
p8567
(lp8568
I4283
aI22
asVovertime
p8569
(lp8570
I4284
aI5
asVSouth
p8571
(lp8572
I4285
aI27
asVfrustration
p8573
(lp8574
I4286
aI3
asVbiggest
p8575
(lp8576
I4287
aI10
asVNovember
p8577
(lp8578
I4288
aI46
asVpretax
p8579
(lp8580
I4289
aI7
asVfails
p8581
(lp8582
I4290
aI4
asVbuilding
p8583
(lp8584
I4291
aI9
asVbuy
p8585
(lp8586
I4292
aI52
asVnorth
p8587
(lp8588
I4293
aI4
asVtriggered
p8589
(lp8590
I4294
aI3
asVfunds
p8591
(lp8592
I4295
aI41
asVNavistar
p8593
(lp8594
I4296
aI4
asV565
p8595
(lp8596
I4297
aI4
asVContract
p8597
(lp8598
I4298
aI3
asVdelivery
p8599
(lp8600
I4299
aI15
asVinsured
p8601
(lp8602
I4300
aI3
asVneutral
p8603
(lp8604
I4301
aI5
asVconstruction
p8605
(lp8606
I4302
aI25
asVgain
p8607
(lp8608
I4303
aI38
asVlarger
p8609
(lp8610
I4304
aI6
asVFollowing
p8611
(lp8612
I4305
aI4
asVDec
p8613
(lp8614
I4306
aI11
asVpartially
p8615
(lp8616
I4307
aI3
asVIndustrial
p8617
(lp8618
I4308
aI14
asV747
p8619
(lp8620
I4309
aI14
asVWall
p8621
(lp8622
I4310
aI20
asVBancorp
p8623
(lp8624
I4311
aI4
asVofficial
p8625
(lp8626
I4312
aI95
asVTed
p8627
(lp8628
I4313
aI3
asVsigned
p8629
(lp8630
I4314
aI40
asVInterbank
p8631
(lp8632
I4315
aI6
asVTex
p8633
(lp8634
I4316
aI7
asVplaced
p8635
(lp8636
I4317
aI9
asVBritain
p8637
(lp8638
I4318
aI19
asVbooks
p8639
(lp8640
I4319
aI4
asVlimit
p8641
(lp8642
I4320
aI11
asVruling
p8643
(lp8644
I4321
aI12
asV720
p8645
(lp8646
I4322
aI4
asVinvest
p8647
(lp8648
I4323
aI8
asVdistribution
p8649
(lp8650
I4324
aI29
asVPeladeau
p8651
(lp8652
I4325
aI14
asVminutes
p8653
(lp8654
I4326
aI4
asVdisplay
p8655
(lp8656
I4327
aI3
asV729
p8657
(lp8658
I4328
aI3
asVbearing
p8659
(lp8660
I4329
aI7
asVCIA
p8661
(lp8662
I4330
aI5
asVmines
p8663
(lp8664
I4331
aI7
asVWest
p8665
(lp8666
I4332
aI49
asVcontribute
p8667
(lp8668
I4333
aI5
asVslowing
p8669
(lp8670
I4334
aI3
asVperiods
p8671
(lp8672
I4335
aI3
asVpartly
p8673
(lp8674
I4336
aI8
asVreflecting
p8675
(lp8676
I4337
aI6
asVpit
p8677
(lp8678
I4338
aI4
asVColombian
p8679
(lp8680
I4339
aI3
asVdiplomat
p8681
(lp8682
I4340
aI3
asVcompared
p8683
(lp8684
I4341
aI60
asVrumors
p8685
(lp8686
I4342
aI9
asVGeneva
p8687
(lp8688
I4343
aI4
asVvariety
p8689
(lp8690
I4344
aI4
asV46
p8691
(lp8692
I4345
aI11
asVtrials
p8693
(lp8694
I4346
aI4
asV44
p8695
(lp8696
I4347
aI11
asVVice
p8697
(lp8698
I4348
aI5
asV42
p8699
(lp8700
I4349
aI16
asV43
p8701
(lp8702
I4350
aI10
asV40
p8703
(lp8704
I4351
aI43
asV41
p8705
(lp8706
I4352
aI15
asVDelivery
p8707
(lp8708
I4353
aI4
asVdrugs
p8709
(lp8710
I4354
aI3
asVstockpile
p8711
(lp8712
I4355
aI3
asVcompares
p8713
(lp8714
I4356
aI7
asVdetails
p8715
(lp8716
I4357
aI35
asVBesides
p8717
(lp8718
I4358
aI3
asVWilliam
p8719
(lp8720
I4359
aI13
asVJefferies
p8721
(lp8722
I4360
aI5
asVconcerning
p8723
(lp8724
I4361
aI3
asVFebruary
p8725
(lp8726
I4362
aI136
asVdramatic
p8727
(lp8728
I4363
aI5
asVclass
p8729
(lp8730
I4364
aI5
asVultimately
p8731
(lp8732
I4365
aI3
asVstay
p8733
(lp8734
I4366
aI8
asVApril
p8735
(lp8736
I4367
aI110
asVchance
p8737
(lp8738
I4368
aI4
asVU
p8739
(lp8740
I4369
aI436
asVMorgan
p8741
(lp8742
I4370
aI7
asVAct
p8743
(lp8744
I4371
aI4
asVWheat
p8745
(lp8746
I4372
aI8
asVCD
p8747
(lp8748
I4373
aI3
asVdisclosure
p8749
(lp8750
I4374
aI5
asVvein
p8751
(lp8752
I4375
aI6
asVexposure
p8753
(lp8754
I4376
aI11
asVUnit
p8755
(lp8756
I4377
aI4
asVCorps
p8757
(lp8758
I4378
aI3
asVCo
p8759
(lp8760
I4379
aI166
asVfactors
p8761
(lp8762
I4380
aI10
asVsubscribe
p8763
(lp8764
I4381
aI4
asVrule
p8765
(lp8766
I4382
aI15
asV472
p8767
(lp8768
I4383
aI4
asVportion
p8769
(lp8770
I4384
aI16
asVpension
p8771
(lp8772
I4385
aI3
asVvolumes
p8773
(lp8774
I4386
aI3
asVSpanish
p8775
(lp8776
I4387
aI6
asVtonnes
p8777
(lp8778
I4388
aI163
asVRefined
p8779
(lp8780
I4389
aI3
asVIn
p8781
(lp8782
I4390
aI105
as.