(dp0
Vaided
p1
(lp2
I-1
aI6
asVlimited
p3
(lp4
I-1
aI14
asVResidential
p5
(lp6
I-1
aI3
asVchild
p7
(lp8
I-1
aI4
asVbear
p9
(lp10
I-1
aI4
asVContinental
p11
(lp12
I-1
aI15
asVfacilities
p13
(lp14
I-1
aI22
asVprotest
p15
(lp16
I-1
aI8
asVcontroversial
p17
(lp18
I-1
aI8
asVSchult
p19
(lp20
I-1
aI4
asVconsists
p21
(lp22
I-1
aI5
asVCommunist
p23
(lp24
I-1
aI3
asVlooking
p25
(lp26
I-1
aI16
asVeligible
p27
(lp28
I-1
aI4
asVelectricity
p29
(lp30
I-1
aI4
asVtremors
p31
(lp32
I-1
aI3
asVadviser
p33
(lp34
I-1
aI5
asVpensions
p35
(lp36
I-1
aI3
asVGelco
p37
(lp38
I-1
aI3
asVCasey
p39
(lp40
I-1
aI4
asVFenner
p41
(lp42
I-1
aI4
asVnominal
p43
(lp44
I-1
aI5
asV340
p45
(lp46
I-1
aI3
asVWestern
p47
(lp48
I-1
aI26
asVSPA
p49
(lp50
I-1
aI4
asVSecretary
p51
(lp52
I-1
aI55
asV348
p53
(lp54
I-1
aI3
asVworth
p55
(lp56
I-1
aI39
asVCMOs
p57
(lp58
I-1
aI5
asVsinking
p59
(lp60
I-1
aI4
asVplants
p61
(lp62
I-1
aI22
asV737
p63
(lp64
I-1
aI3
asVrescue
p65
(lp66
I-1
aI4
asVIranian
p67
(lp68
I-1
aI9
asVpropane
p69
(lp70
I-1
aI4
asVZiering
p71
(lp72
I-1
aI6
asVIndustry
p73
(lp74
I-1
aI11
asVregional
p75
(lp76
I-1
aI8
asVsellers
p77
(lp78
I-1
aI4
asVMelamed
p79
(lp80
I-1
aI4
asVSalomon
p81
(lp82
I-1
aI6
asVGE
p83
(lp84
I-1
aI6
asVreplaces
p85
(lp86
I-1
aI4
asVsuggests
p87
(lp88
I-1
aI7
asVreforms
p89
(lp90
I-1
aI7
asVcreditors
p91
(lp92
I-1
aI16
asVaffect
p93
(lp94
I-1
aI7
asVGM
p95
(lp96
I-1
aI11
asVexporters
p97
(lp98
I-1
aI9
asVbringing
p99
(lp100
I-1
aI6
asV736
p101
(lp102
I-1
aI3
asVMAS
p103
(lp104
I-1
aI4
asVpresidency
p105
(lp106
I-1
aI3
asVEconomists
p107
(lp108
I-1
aI8
asVcrops
p109
(lp110
I-1
aI5
asVDeputy
p111
(lp112
I-1
aI9
asVcompanies
p113
(lp114
I-1
aI71
asVsolution
p115
(lp116
I-1
aI10
asVfrozen
p117
(lp118
I-1
aI3
asVCrude
p119
(lp120
I-1
aI3
asVMay
p121
(lp122
I-1
aI41
asVdelegate
p123
(lp124
I-1
aI3
asVSNP
p125
(lp126
I-1
aI3
asV299
p127
(lp128
I-1
aI3
asVenhance
p129
(lp130
I-1
aI5
asVPaul
p131
(lp132
I-1
aI16
asV295
p133
(lp134
I-1
aI3
asVcommented
p135
(lp136
I-1
aI4
asV291
p137
(lp138
I-1
aI3
asVforce
p139
(lp140
I-1
aI12
asVleaders
p141
(lp142
I-1
aI5
asVestimates
p143
(lp144
I-1
aI13
asVSome
p145
(lp146
I-1
aI23
asVelections
p147
(lp148
I-1
aI5
asVtires
p149
(lp150
I-1
aI3
asVsurrounding
p151
(lp152
I-1
aI3
asVsecond
p153
(lp154
I-1
aI47
asVexchangeable
p155
(lp156
I-1
aI6
asV275
p157
(lp158
I-1
aI3
asVborrowings
p159
(lp160
I-1
aI20
asVPetite
p161
(lp162
I-1
aI4
asVDuesseldorf
p163
(lp164
I-1
aI3
asVmachines
p165
(lp166
I-1
aI6
asV583
p167
(lp168
I-1
aI3
asVAvailable
p169
(lp170
I-1
aI3
asVestablished
p171
(lp172
I-1
aI6
asVerrors
p173
(lp174
I-1
aI4
asVguilty
p175
(lp176
I-1
aI3
asVpace
p177
(lp178
I-1
aI8
asVselected
p179
(lp180
I-1
aI9
asVcontributed
p181
(lp182
I-1
aI9
asVprofitability
p183
(lp184
I-1
aI3
asVsupplied
p185
(lp186
I-1
aI3
asVMazda
p187
(lp188
I-1
aI4
asVendorse
p189
(lp190
I-1
aI3
asVnew
p191
(lp192
I-1
aI252
asVnet
p193
(lp194
I-1
aI99
asVincreasing
p195
(lp196
I-1
aI11
asVofficially
p197
(lp198
I-1
aI3
asVPresidential
p199
(lp200
I-1
aI7
asVtold
p201
(lp202
I-1
aI111
asVmutual
p203
(lp204
I-1
aI5
asVIndonesia
p205
(lp206
I-1
aI34
asVsimultaneously
p207
(lp208
I-1
aI3
asVlicences
p209
(lp210
I-1
aI5
asVmechanisms
p211
(lp212
I-1
aI5
asVmen
p213
(lp214
I-1
aI5
asVBudget
p215
(lp216
I-1
aI4
asVYeutter
p217
(lp218
I-1
aI6
asVreported
p219
(lp220
I-1
aI61
asV108
p221
(lp222
I-1
aI7
asV109
p223
(lp224
I-1
aI10
asVactive
p225
(lp226
I-1
aI9
asVaffiliated
p227
(lp228
I-1
aI4
asV100
p229
(lp230
I-1
aI71
asV101
p231
(lp232
I-1
aI14
asV107
p233
(lp234
I-1
aI6
asV104
p235
(lp236
I-1
aI6
asV105
p237
(lp238
I-1
aI4
asVborrowers
p239
(lp240
I-1
aI6
asVbalance
p241
(lp242
I-1
aI24
asVDebron
p243
(lp244
I-1
aI3
asVforum
p245
(lp246
I-1
aI4
asVclarify
p247
(lp248
I-1
aI4
asVventures
p249
(lp250
I-1
aI4
asVitems
p251
(lp252
I-1
aI11
asVstudy
p253
(lp254
I-1
aI21
asVManufacturers
p255
(lp256
I-1
aI3
asVcompletely
p257
(lp258
I-1
aI3
asVreports
p259
(lp260
I-1
aI17
asVadopt
p261
(lp262
I-1
aI4
asVcredit
p263
(lp264
I-1
aI80
asVanalysts
p265
(lp266
I-1
aI74
asVsmoke
p267
(lp268
I-1
aI3
asVstressed
p269
(lp270
I-1
aI11
asVmilitary
p271
(lp272
I-1
aI9
asVpostponed
p273
(lp274
I-1
aI5
asVsettled
p275
(lp276
I-1
aI4
asVNegotiations
p277
(lp278
I-1
aI3
asVissuers
p279
(lp280
I-1
aI4
asVcriticism
p281
(lp282
I-1
aI10
asVGroup
p283
(lp284
I-1
aI54
asVprojection
p285
(lp286
I-1
aI6
asVcampaign
p287
(lp288
I-1
aI8
asVIndustrier
p289
(lp290
I-1
aI3
asVLiebert
p291
(lp292
I-1
aI3
asVexplained
p293
(lp294
I-1
aI6
asVreplace
p295
(lp296
I-1
aI11
asVbrought
p297
(lp298
I-1
aI8
asVsuffered
p299
(lp300
I-1
aI3
asVHealth
p301
(lp302
I-1
aI4
asVsoybean
p303
(lp304
I-1
aI17
asVCTC
p305
(lp306
I-1
aI4
asVWales
p307
(lp308
I-1
aI3
asVcounts
p309
(lp310
I-1
aI5
asVtotal
p311
(lp312
I-1
aI99
asVRopak
p313
(lp314
I-1
aI3
asVBoesze
p315
(lp316
I-1
aI11
asVreflected
p317
(lp318
I-1
aI7
asVspoke
p319
(lp320
I-1
aI3
asV345
p321
(lp322
I-1
aI5
asVmarine
p323
(lp324
I-1
aI3
asVKiichi
p325
(lp326
I-1
aI3
asVJune
p327
(lp328
I-1
aI43
asVnegative
p329
(lp330
I-1
aI10
asVcents
p331
(lp332
I-1
aI31
asVnoting
p333
(lp334
I-1
aI3
asVCorning
p335
(lp336
I-1
aI3
asVrecommend
p337
(lp338
I-1
aI3
asVstrike
p339
(lp340
I-1
aI9
asVIt
p341
(lp342
I-1
aI252
asVtype
p343
(lp344
I-1
aI7
asVvoted
p345
(lp346
I-1
aI6
asVinformally
p347
(lp348
I-1
aI4
asVcoupled
p349
(lp350
I-1
aI4
asVMinistry
p351
(lp352
I-1
aI24
asVsuccessful
p353
(lp354
I-1
aI6
asVbrings
p355
(lp356
I-1
aI7
asVmeeting
p357
(lp358
I-1
aI85
asVhurt
p359
(lp360
I-1
aI3
asV99
p361
(lp362
I-1
aI15
asV98
p363
(lp364
I-1
aI17
asVarms
p365
(lp366
I-1
aI28
asVV
p367
(lp368
I-1
aI9
asV91
p369
(lp370
I-1
aI9
asV90
p371
(lp372
I-1
aI34
asV93
p373
(lp374
I-1
aI7
asV92
p375
(lp376
I-1
aI15
asV95
p377
(lp378
I-1
aI15
asV94
p379
(lp380
I-1
aI10
asV97
p381
(lp382
I-1
aI6
asV96
p383
(lp384
I-1
aI10
asV1991
p385
(lp386
I-1
aI10
asV1990
p387
(lp388
I-1
aI21
asV1992
p389
(lp390
I-1
aI22
asV1995
p391
(lp392
I-1
aI3
asV1994
p393
(lp394
I-1
aI4
asV1997
p395
(lp396
I-1
aI8
asV1996
p397
(lp398
I-1
aI4
asV1999
p399
(lp400
I-1
aI4
asVImports
p401
(lp402
I-1
aI4
asVpoints
p403
(lp404
I-1
aI33
asVwork
p405
(lp406
I-1
aI29
asVApr
p407
(lp408
I-1
aI7
asVColombia
p409
(lp410
I-1
aI5
asVrevenues
p411
(lp412
I-1
aI33
asVexample
p413
(lp414
I-1
aI4
asVdefer
p415
(lp416
I-1
aI3
asV559
p417
(lp418
I-1
aI3
asVunilateral
p419
(lp420
I-1
aI4
asVreceivables
p421
(lp422
I-1
aI7
asVwane
p423
(lp424
I-1
aI3
asVCorporation
p425
(lp426
I-1
aI5
asVcited
p427
(lp428
I-1
aI7
asVlevied
p429
(lp430
I-1
aI3
asV551
p431
(lp432
I-1
aI3
asV1983
p433
(lp434
I-1
aI13
asVLi
p435
(lp436
I-1
aI8
asVinvolve
p437
(lp438
I-1
aI4
asVcurrency
p439
(lp440
I-1
aI32
asVHolding
p441
(lp442
I-1
aI8
asVDigital
p443
(lp444
I-1
aI4
asVpremium
p445
(lp446
I-1
aI9
asVdrive
p447
(lp448
I-1
aI5
asVfeasible
p449
(lp450
I-1
aI3
asVattract
p451
(lp452
I-1
aI3
asVtotaled
p453
(lp454
I-1
aI7
asVrisk
p455
(lp456
I-1
aI10
asVhog
p457
(lp458
I-1
aI3
asVend
p459
(lp460
I-1
aI77
asVLloyds
p461
(lp462
I-1
aI3
asVcarriers
p463
(lp464
I-1
aI3
asVprovide
p465
(lp466
I-1
aI32
asVLL
p467
(lp468
I-1
aI3
asVfeature
p469
(lp470
I-1
aI8
asVmachine
p471
(lp472
I-1
aI5
asVJeep
p473
(lp474
I-1
aI6
asVHartford
p475
(lp476
I-1
aI5
asVinterview
p477
(lp478
I-1
aI11
asVplace
p479
(lp480
I-1
aI21
asVordinary
p481
(lp482
I-1
aI6
asVresignation
p483
(lp484
I-1
aI3
asVForman
p485
(lp486
I-1
aI5
asVoffshore
p487
(lp488
I-1
aI3
asVA
p489
(lp490
I-1
aI148
asVMcKinnon
p491
(lp492
I-1
aI3
asVBates
p493
(lp494
I-1
aI6
asVminority
p495
(lp496
I-1
aI9
asVearlier
p497
(lp498
I-1
aI86
asVconfirmed
p499
(lp500
I-1
aI5
asVlump
p501
(lp502
I-1
aI5
asVcustoms
p503
(lp504
I-1
aI3
asVmodest
p505
(lp506
I-1
aI4
asVlay
p507
(lp508
I-1
aI3
asVpresident
p509
(lp510
I-1
aI82
asVlaw
p511
(lp512
I-1
aI13
asVtypes
p513
(lp514
I-1
aI6
asVpurchase
p515
(lp516
I-1
aI42
asVAll
p517
(lp518
I-1
aI10
asVattempt
p519
(lp520
I-1
aI9
asVeffective
p521
(lp522
I-1
aI24
asVAli
p523
(lp524
I-1
aI6
asVamid
p525
(lp526
I-1
aI4
asVappreciate
p527
(lp528
I-1
aI3
asVlost
p529
(lp530
I-1
aI16
asVdiscontinued
p531
(lp532
I-1
aI8
asVLawson
p533
(lp534
I-1
aI10
asVmaintain
p535
(lp536
I-1
aI13
asVgreen
p537
(lp538
I-1
aI3
asVsouth
p539
(lp540
I-1
aI4
asVAnother
p541
(lp542
I-1
aI9
asVenter
p543
(lp544
I-1
aI9
asVHKEH
p545
(lp546
I-1
aI3
asV516
p547
(lp548
I-1
aI3
asVwing
p549
(lp550
I-1
aI3
asVoperations
p551
(lp552
I-1
aI53
asVEven
p553
(lp554
I-1
aI3
asVZapata
p555
(lp556
I-1
aI4
asVoffice
p557
(lp558
I-1
aI22
asVwelcomed
p559
(lp560
I-1
aI4
asVconsent
p561
(lp562
I-1
aI3
asVHousing
p563
(lp564
I-1
aI5
asVfall
p565
(lp566
I-1
aI55
asVexpects
p567
(lp568
I-1
aI31
asVinventory
p569
(lp570
I-1
aI5
asVsoyoil
p571
(lp572
I-1
aI3
asVFHLBB
p573
(lp574
I-1
aI3
asVinnovative
p575
(lp576
I-1
aI3
asVexchange
p577
(lp578
I-1
aI96
asVMiyazawa
p579
(lp580
I-1
aI3
asVdifference
p581
(lp582
I-1
aI4
asVmatures
p583
(lp584
I-1
aI7
asVpersonal
p585
(lp586
I-1
aI18
asVRichter
p587
(lp588
I-1
aI5
asVfix
p589
(lp590
I-1
aI6
asVDilson
p591
(lp592
I-1
aI11
asV84
p593
(lp594
I-1
aI7
asVMonetary
p595
(lp596
I-1
aI23
asVcrew
p597
(lp598
I-1
aI4
asVbetter
p599
(lp600
I-1
aI27
asVHarris
p601
(lp602
I-1
aI4
asV400
p603
(lp604
I-1
aI49
asVweeks
p605
(lp606
I-1
aI32
asVeasier
p607
(lp608
I-1
aI3
asVovercome
p609
(lp610
I-1
aI5
asVdamages
p611
(lp612
I-1
aI5
asVversus
p613
(lp614
I-1
aI5
asVdonors
p615
(lp616
I-1
aI3
asVcoffee
p617
(lp618
I-1
aI36
asVaffected
p619
(lp620
I-1
aI7
asVcombination
p621
(lp622
I-1
aI3
asVOman
p623
(lp624
I-1
aI4
asVsafe
p625
(lp626
I-1
aI3
asVbirth
p627
(lp628
I-1
aI4
asVThomas
p629
(lp630
I-1
aI8
asVVolvo
p631
(lp632
I-1
aI3
asVbreak
p633
(lp634
I-1
aI6
asVband
p635
(lp636
I-1
aI7
asVeffects
p637
(lp638
I-1
aI4
asVsilver
p639
(lp640
I-1
aI5
asVbank
p641
(lp642
I-1
aI139
asVstructural
p643
(lp644
I-1
aI3
asVrepresents
p645
(lp646
I-1
aI8
asVLiberal
p647
(lp648
I-1
aI3
asVreintroduction
p649
(lp650
I-1
aI4
asVCairo
p651
(lp652
I-1
aI5
asVclassified
p653
(lp654
I-1
aI3
asVkilos
p655
(lp656
I-1
aI3
asVTelecommunications
p657
(lp658
I-1
aI4
asVFour
p659
(lp660
I-1
aI10
asV378
p661
(lp662
I-1
aI3
asVgood
p663
(lp664
I-1
aI22
asVPlanning
p665
(lp666
I-1
aI5
asVaffiliate
p667
(lp668
I-1
aI8
asVvictory
p669
(lp670
I-1
aI3
asVreasonable
p671
(lp672
I-1
aI3
asV370
p673
(lp674
I-1
aI3
asVwent
p675
(lp676
I-1
aI5
asV375
p677
(lp678
I-1
aI8
asVmeal
p679
(lp680
I-1
aI8
asVTransport
p681
(lp682
I-1
aI3
asVbond
p683
(lp684
I-1
aI79
asVdevelopment
p685
(lp686
I-1
aI32
asVlifted
p687
(lp688
I-1
aI4
asVfinancial
p689
(lp690
I-1
aI66
asVsuspended
p691
(lp692
I-1
aI19
asVmeets
p693
(lp694
I-1
aI3
asVcouncils
p695
(lp696
I-1
aI4
asVseries
p697
(lp698
I-1
aI20
asVaide
p699
(lp700
I-1
aI9
asVSeixas
p701
(lp702
I-1
aI6
asV390
p703
(lp704
I-1
aI3
asVtrading
p705
(lp706
I-1
aI79
asVcorporations
p707
(lp708
I-1
aI4
asVsubstantially
p709
(lp710
I-1
aI7
asVFmHA
p711
(lp712
I-1
aI3
asVPires
p713
(lp714
I-1
aI3
asVRevs
p715
(lp716
I-1
aI29
asVdifferent
p717
(lp718
I-1
aI7
asVnetwork
p719
(lp720
I-1
aI17
asVChancellor
p721
(lp722
I-1
aI7
asVcrucial
p723
(lp724
I-1
aI4
asVsemiconductor
p725
(lp726
I-1
aI4
asVencourage
p727
(lp728
I-1
aI13
asVRhone
p729
(lp730
I-1
aI3
asVrevolving
p731
(lp732
I-1
aI3
asVWard
p733
(lp734
I-1
aI4
asVProducers
p735
(lp736
I-1
aI3
asVvenezuela
p737
(lp738
I-1
aI5
asVAzuma
p739
(lp740
I-1
aI3
asVGCC
p741
(lp742
I-1
aI7
asVdisputed
p743
(lp744
I-1
aI3
asVassured
p745
(lp746
I-1
aI3
asVresume
p747
(lp748
I-1
aI7
asVveto
p749
(lp750
I-1
aI3
asVUniversity
p751
(lp752
I-1
aI5
asVthreatened
p753
(lp754
I-1
aI8
asVgiven
p755
(lp756
I-1
aI17
asVfree
p757
(lp758
I-1
aI23
asVstandard
p759
(lp760
I-1
aI10
asVAntibioticos
p761
(lp762
I-1
aI3
asVEurodollar
p763
(lp764
I-1
aI5
asVallocation
p765
(lp766
I-1
aI3
asV240
p767
(lp768
I-1
aI7
asVCircuit
p769
(lp770
I-1
aI4
asVboosting
p771
(lp772
I-1
aI3
asVSES
p773
(lp774
I-1
aI3
asVestimate
p775
(lp776
I-1
aI19
asVwanted
p777
(lp778
I-1
aI8
asVFrankfurt
p779
(lp780
I-1
aI3
asVwidespread
p781
(lp782
I-1
aI6
asVSuharto
p783
(lp784
I-1
aI3
asVEsselte
p785
(lp786
I-1
aI5
asVCambridge
p787
(lp788
I-1
aI3
asVNigel
p789
(lp790
I-1
aI6
asVcreated
p791
(lp792
I-1
aI7
asVSeptember
p793
(lp794
I-1
aI60
asVstarts
p795
(lp796
I-1
aI3
asVNational
p797
(lp798
I-1
aI68
asVmessages
p799
(lp800
I-1
aI3
asVdays
p801
(lp802
I-1
aI49
asVlocal
p803
(lp804
I-1
aI40
asVministries
p805
(lp806
I-1
aI3
asVshipped
p807
(lp808
I-1
aI5
asV000
p809
(lp810
I-1
aI437
asVfought
p811
(lp812
I-1
aI3
asVkingdom
p813
(lp814
I-1
aI3
asVChase
p815
(lp816
I-1
aI5
asVGerald
p817
(lp818
I-1
aI4
asVMining
p819
(lp820
I-1
aI9
asVrand
p821
(lp822
I-1
aI3
asVindustrial
p823
(lp824
I-1
aI20
asVNacco
p825
(lp826
I-1
aI4
asVeconomists
p827
(lp828
I-1
aI37
asVgrade
p829
(lp830
I-1
aI7
asVDub
p831
(lp832
I-1
aI5
asVprimary
p833
(lp834
I-1
aI17
asVhearing
p835
(lp836
I-1
aI4
asVrestrict
p837
(lp838
I-1
aI6
asVspinning
p839
(lp840
I-1
aI3
asVunspecified
p841
(lp842
I-1
aI3
asVAutomotive
p843
(lp844
I-1
aI6
asV175
p845
(lp846
I-1
aI6
asV174
p847
(lp848
I-1
aI4
asVelectronic
p849
(lp850
I-1
aI16
asV172
p851
(lp852
I-1
aI3
asVRohr
p853
(lp854
I-1
aI3
asVmercury
p855
(lp856
I-1
aI4
asVrated
p857
(lp858
I-1
aI9
asVservice
p859
(lp860
I-1
aI43
asVapproximately
p861
(lp862
I-1
aI4
asVneeded
p863
(lp864
I-1
aI27
asVrates
p865
(lp866
I-1
aI65
asVFoothill
p867
(lp868
I-1
aI3
asVPress
p869
(lp870
I-1
aI4
asVDividend
p871
(lp872
I-1
aI3
asVLNG
p873
(lp874
I-1
aI9
asVProducing
p875
(lp876
I-1
aI4
asVranging
p877
(lp878
I-1
aI10
asVdamaging
p879
(lp880
I-1
aI3
asVAlexander
p881
(lp882
I-1
aI3
asVSprinkel
p883
(lp884
I-1
aI6
asVceiling
p885
(lp886
I-1
aI16
asVB
p887
(lp888
I-1
aI13
asVcollapse
p889
(lp890
I-1
aI5
asVQuoting
p891
(lp892
I-1
aI3
asVserve
p893
(lp894
I-1
aI14
asVtook
p895
(lp896
I-1
aI17
asVrejected
p897
(lp898
I-1
aI17
asVnearing
p899
(lp900
I-1
aI3
asVDenver
p901
(lp902
I-1
aI3
asVsomewhat
p903
(lp904
I-1
aI4
asVIf
p905
(lp906
I-1
aI25
asVshortly
p907
(lp908
I-1
aI5
asVPACCAR
p909
(lp910
I-1
aI5
asVwhite
p911
(lp912
I-1
aI6
asVpositively
p913
(lp914
I-1
aI4
asVWyss
p915
(lp916
I-1
aI4
asVguild
p917
(lp918
I-1
aI6
asVtarget
p919
(lp920
I-1
aI22
asVshowed
p921
(lp922
I-1
aI22
asVprograms
p923
(lp924
I-1
aI7
asVlikely
p925
(lp926
I-1
aI63
asVimputation
p927
(lp928
I-1
aI4
asVnations
p929
(lp930
I-1
aI19
asVproject
p931
(lp932
I-1
aI15
asVmatter
p933
(lp934
I-1
aI7
asVstreet
p935
(lp936
I-1
aI3
asVnervous
p937
(lp938
I-1
aI3
asVSea
p939
(lp940
I-1
aI3
asVprofitable
p941
(lp942
I-1
aI11
asVSen
p943
(lp944
I-1
aI8
asVbidder
p945
(lp946
I-1
aI4
asVminus
p947
(lp948
I-1
aI6
asVacquisition
p949
(lp950
I-1
aI37
asVbridge
p951
(lp952
I-1
aI7
asVKaunda
p953
(lp954
I-1
aI3
asVwillingness
p955
(lp956
I-1
aI3
asVChicago
p957
(lp958
I-1
aI27
asVran
p959
(lp960
I-1
aI3
asVmind
p961
(lp962
I-1
aI4
asVMine
p963
(lp964
I-1
aI4
asVraw
p965
(lp966
I-1
aI8
asVseen
p967
(lp968
I-1
aI14
asVseek
p969
(lp970
I-1
aI14
asVseminar
p971
(lp972
I-1
aI3
asVinefficient
p973
(lp974
I-1
aI3
asVforced
p975
(lp976
I-1
aI8
asVstrength
p977
(lp978
I-1
aI10
asVChristian
p979
(lp980
I-1
aI4
asVbroadly
p981
(lp982
I-1
aI4
asVdollars
p983
(lp984
I-1
aI13
asVresponsible
p985
(lp986
I-1
aI11
asVBiltmore
p987
(lp988
I-1
aI5
asVrecommended
p989
(lp990
I-1
aI7
asVmaterials
p991
(lp992
I-1
aI11
asVMinister
p993
(lp994
I-1
aI58
asVforces
p995
(lp996
I-1
aI7
asVlayoffs
p997
(lp998
I-1
aI4
asVQantas
p999
(lp1000
I-1
aI10
asVBank
p1001
(lp1002
I-1
aI172
asVshipments
p1003
(lp1004
I-1
aI11
asVacquire
p1005
(lp1006
I-1
aI29
asVAlgerian
p1007
(lp1008
I-1
aI5
asVtransactions
p1009
(lp1010
I-1
aI21
asVsugarcane
p1011
(lp1012
I-1
aI3
asVextending
p1013
(lp1014
I-1
aI4
asVGmbH
p1015
(lp1016
I-1
aI3
asVinvolving
p1017
(lp1018
I-1
aI8
asVletter
p1019
(lp1020
I-1
aI26
asVorganization
p1021
(lp1022
I-1
aI8
asVphase
p1023
(lp1024
I-1
aI7
asVimported
p1025
(lp1026
I-1
aI9
asVdrought
p1027
(lp1028
I-1
aI5
asVBond
p1029
(lp1030
I-1
aI8
asVdon
p1031
(lp1032
I-1
aI18
asVWang
p1033
(lp1034
I-1
aI4
asVLewis
p1035
(lp1036
I-1
aI4
asVcalculated
p1037
(lp1038
I-1
aI7
asVm
p1039
(lp1040
I-1
aI7
asVspend
p1041
(lp1042
I-1
aI5
asVaccounted
p1043
(lp1044
I-1
aI8
asVprinciple
p1045
(lp1046
I-1
aI12
asVman
p1047
(lp1048
I-1
aI3
asVvoting
p1049
(lp1050
I-1
aI12
asVconsumer
p1051
(lp1052
I-1
aI17
asVIts
p1053
(lp1054
I-1
aI8
asVcame
p1055
(lp1056
I-1
aI14
asVreserve
p1057
(lp1058
I-1
aI23
asVsaying
p1059
(lp1060
I-1
aI33
asVBasra
p1061
(lp1062
I-1
aI6
asVcontacted
p1063
(lp1064
I-1
aI4
asVUnion
p1065
(lp1066
I-1
aI39
asVAbdul
p1067
(lp1068
I-1
aI5
asVmeetings
p1069
(lp1070
I-1
aI6
asVAgency
p1071
(lp1072
I-1
aI18
asVending
p1073
(lp1074
I-1
aI20
asVattempts
p1075
(lp1076
I-1
aI5
asVgauge
p1077
(lp1078
I-1
aI4
asVreductions
p1079
(lp1080
I-1
aI4
asVparticipate
p1081
(lp1082
I-1
aI3
asVearth
p1083
(lp1084
I-1
aI4
asVthirds
p1085
(lp1086
I-1
aI8
asVrescheduling
p1087
(lp1088
I-1
aI20
asVCongressional
p1089
(lp1090
I-1
aI3
asVEuropean
p1091
(lp1092
I-1
aI55
asVSunflowerseed
p1093
(lp1094
I-1
aI3
asVnortheast
p1095
(lp1096
I-1
aI4
asVMercantile
p1097
(lp1098
I-1
aI5
asVjust
p1099
(lp1100
I-1
aI25
asVUnocal
p1101
(lp1102
I-1
aI4
asVimplementation
p1103
(lp1104
I-1
aI3
asVSept
p1105
(lp1106
I-1
aI10
asVexplain
p1107
(lp1108
I-1
aI7
asVdebts
p1109
(lp1110
I-1
aI3
asVsugar
p1111
(lp1112
I-1
aI16
asVlube
p1113
(lp1114
I-1
aI3
asV544
p1115
(lp1116
I-1
aI3
asVannounce
p1117
(lp1118
I-1
aI15
asVrice
p1119
(lp1120
I-1
aI12
asVexports
p1121
(lp1122
I-1
aI87
asVNetherlands
p1123
(lp1124
I-1
aI4
asVLevel
p1125
(lp1126
I-1
aI5
asVNevertheless
p1127
(lp1128
I-1
aI5
asVconduct
p1129
(lp1130
I-1
aI7
asVstop
p1131
(lp1132
I-1
aI13
asV13
p1133
(lp1134
I-1
aI65
asVpreferred
p1135
(lp1136
I-1
aI28
asVHeck
p1137
(lp1138
I-1
aI3
asVcompetitive
p1139
(lp1140
I-1
aI15
asVreversal
p1141
(lp1142
I-1
aI3
asVsupplies
p1143
(lp1144
I-1
aI10
asVreport
p1145
(lp1146
I-1
aI116
asVX
p1147
(lp1148
I-1
aI6
asVquarters
p1149
(lp1150
I-1
aI9
asVSoviet
p1151
(lp1152
I-1
aI13
asVBahia
p1153
(lp1154
I-1
aI4
asVJohnstone
p1155
(lp1156
I-1
aI3
asVruns
p1157
(lp1158
I-1
aI3
asVcovering
p1159
(lp1160
I-1
aI13
asVedge
p1161
(lp1162
I-1
aI3
asVreintroducing
p1163
(lp1164
I-1
aI3
asVoats
p1165
(lp1166
I-1
aI6
asVWashington
p1167
(lp1168
I-1
aI40
asVSaturday
p1169
(lp1170
I-1
aI15
asVirregularities
p1171
(lp1172
I-1
aI3
asV19
p1173
(lp1174
I-1
aI48
asVbad
p1175
(lp1176
I-1
aI6
asVdiscs
p1177
(lp1178
I-1
aI3
asV18
p1179
(lp1180
I-1
aI40
asVrelease
p1181
(lp1182
I-1
aI7
asVautomatic
p1183
(lp1184
I-1
aI6
asVsecretary
p1185
(lp1186
I-1
aI4
asVgallon
p1187
(lp1188
I-1
aI3
asVPartners
p1189
(lp1190
I-1
aI4
asVleasing
p1191
(lp1192
I-1
aI3
asVfair
p1193
(lp1194
I-1
aI3
asVjob
p1195
(lp1196
I-1
aI13
asVtesting
p1197
(lp1198
I-1
aI4
asV1960s
p1199
(lp1200
I-1
aI3
asVTextile
p1201
(lp1202
I-1
aI3
asVdepends
p1203
(lp1204
I-1
aI4
asVdecided
p1205
(lp1206
I-1
aI18
asVprojections
p1207
(lp1208
I-1
aI6
asVSydney
p1209
(lp1210
I-1
aI5
asVcattle
p1211
(lp1212
I-1
aI3
asVdiscussions
p1213
(lp1214
I-1
aI28
asVresigned
p1215
(lp1216
I-1
aI12
asVAMAX
p1217
(lp1218
I-1
aI3
asVbest
p1219
(lp1220
I-1
aI9
asVtechniques
p1221
(lp1222
I-1
aI4
asV02
p1223
(lp1224
I-1
aI3
asV03
p1225
(lp1226
I-1
aI13
asVIndonesian
p1227
(lp1228
I-1
aI6
asV01
p1229
(lp1230
I-1
aI3
asV06
p1231
(lp1232
I-1
aI10
asVKorea
p1233
(lp1234
I-1
aI11
asV04
p1235
(lp1236
I-1
aI9
asV05
p1237
(lp1238
I-1
aI16
asVAuto
p1239
(lp1240
I-1
aI4
asVaway
p1241
(lp1242
I-1
aI10
asVfreeze
p1243
(lp1244
I-1
aI13
asVkind
p1245
(lp1246
I-1
aI9
asVunable
p1247
(lp1248
I-1
aI9
asVAzzam
p1249
(lp1250
I-1
aI7
asVcooperation
p1251
(lp1252
I-1
aI9
asVmths
p1253
(lp1254
I-1
aI9
asVPrices
p1255
(lp1256
I-1
aI9
asVMizrahi
p1257
(lp1258
I-1
aI3
asVTechnologies
p1259
(lp1260
I-1
aI8
asVprevious
p1261
(lp1262
I-1
aI61
asVapproach
p1263
(lp1264
I-1
aI6
asV360
p1265
(lp1266
I-1
aI3
asVwage
p1267
(lp1268
I-1
aI19
asVaccord
p1269
(lp1270
I-1
aI26
asVterms
p1271
(lp1272
I-1
aI43
asVnationwide
p1273
(lp1274
I-1
aI5
asVnature
p1275
(lp1276
I-1
aI5
asVcomponent
p1277
(lp1278
I-1
aI5
asVweak
p1279
(lp1280
I-1
aI14
asVmetal
p1281
(lp1282
I-1
aI3
asV380
p1283
(lp1284
I-1
aI4
asVcut
p1285
(lp1286
I-1
aI51
asV384
p1287
(lp1288
I-1
aI3
asVextent
p1289
(lp1290
I-1
aI7
asVnews
p1291
(lp1292
I-1
aI27
asVconvertible
p1293
(lp1294
I-1
aI24
asVdebt
p1295
(lp1296
I-1
aI188
asVholds
p1297
(lp1298
I-1
aI13
asVOtherwise
p1299
(lp1300
I-1
aI3
asVsuggested
p1301
(lp1302
I-1
aI7
asVreceived
p1303
(lp1304
I-1
aI36
asVprotect
p1305
(lp1306
I-1
aI18
asVmet
p1307
(lp1308
I-1
aI15
asVresistant
p1309
(lp1310
I-1
aI4
asVcountry
p1311
(lp1312
I-1
aI62
asVuncertainty
p1313
(lp1314
I-1
aI9
asVheating
p1315
(lp1316
I-1
aI3
asVdemanded
p1317
(lp1318
I-1
aI8
asVThomson
p1319
(lp1320
I-1
aI8
asVplayers
p1321
(lp1322
I-1
aI6
asVComputer
p1323
(lp1324
I-1
aI21
asVplanned
p1325
(lp1326
I-1
aI28
asVreceives
p1327
(lp1328
I-1
aI4
asVfaces
p1329
(lp1330
I-1
aI4
asVrequests
p1331
(lp1332
I-1
aI9
asVargue
p1333
(lp1334
I-1
aI3
asVasked
p1335
(lp1336
I-1
aI32
asVnegotiation
p1337
(lp1338
I-1
aI6
asVsuggest
p1339
(lp1340
I-1
aI3
asVappeared
p1341
(lp1342
I-1
aI13
asVmegabyte
p1343
(lp1344
I-1
aI4
asVReuter
p1345
(lp1346
I-1
aI510
asVPetroleum
p1347
(lp1348
I-1
aI13
asVseizure
p1349
(lp1350
I-1
aI3
asVLehman
p1351
(lp1352
I-1
aI7
asV102
p1353
(lp1354
I-1
aI8
asVtons
p1355
(lp1356
I-1
aI46
asVinitiative
p1357
(lp1358
I-1
aI7
asVTelegraph
p1359
(lp1360
I-1
aI6
asVIreland
p1361
(lp1362
I-1
aI4
asVOhio
p1363
(lp1364
I-1
aI13
asVwider
p1365
(lp1366
I-1
aI5
asVCourt
p1367
(lp1368
I-1
aI9
asV250
p1369
(lp1370
I-1
aI22
asVtrust
p1371
(lp1372
I-1
aI22
asVtelecommunications
p1373
(lp1374
I-1
aI5
asVPower
p1375
(lp1376
I-1
aI8
asVconference
p1377
(lp1378
I-1
aI24
asVTVX
p1379
(lp1380
I-1
aI9
asVengines
p1381
(lp1382
I-1
aI15
asVbasis
p1383
(lp1384
I-1
aI52
asVunion
p1385
(lp1386
I-1
aI27
asVOctober
p1387
(lp1388
I-1
aI20
asVremained
p1389
(lp1390
I-1
aI18
asVcriticised
p1391
(lp1392
I-1
aI4
asVquickly
p1393
(lp1394
I-1
aI16
asVsubsidy
p1395
(lp1396
I-1
aI6
asVcommission
p1397
(lp1398
I-1
aI8
asVtrigger
p1399
(lp1400
I-1
aI4
asVbasic
p1401
(lp1402
I-1
aI6
asVexpected
p1403
(lp1404
I-1
aI144
asVflexible
p1405
(lp1406
I-1
aI5
asVentered
p1407
(lp1408
I-1
aI10
asVborrower
p1409
(lp1410
I-1
aI3
asVCiticorp
p1411
(lp1412
I-1
aI4
asVduties
p1413
(lp1414
I-1
aI6
asVQuotation
p1415
(lp1416
I-1
aI3
asVobtained
p1417
(lp1418
I-1
aI7
asVlife
p1419
(lp1420
I-1
aI18
asVNimocks
p1421
(lp1422
I-1
aI3
asVfamilies
p1423
(lp1424
I-1
aI5
asVTokyo
p1425
(lp1426
I-1
aI25
asVPennsylvania
p1427
(lp1428
I-1
aI5
asV39
p1429
(lp1430
I-1
aI13
asVPoland
p1431
(lp1432
I-1
aI7
asVazpurua
p1433
(lp1434
I-1
aI3
asVlocations
p1435
(lp1436
I-1
aI7
asV111
p1437
(lp1438
I-1
aI4
asVlift
p1439
(lp1440
I-1
aI3
asVStuart
p1441
(lp1442
I-1
aI7
asV164
p1443
(lp1444
I-1
aI6
asV165
p1445
(lp1446
I-1
aI4
asVworked
p1447
(lp1448
I-1
aI6
asVspin
p1449
(lp1450
I-1
aI5
asVdiverted
p1451
(lp1452
I-1
aI3
asVapplied
p1453
(lp1454
I-1
aI4
asVTreasuries
p1455
(lp1456
I-1
aI6
asVsave
p1457
(lp1458
I-1
aI4
asVCentrale
p1459
(lp1460
I-1
aI8
asVpublicly
p1461
(lp1462
I-1
aI3
asV38
p1463
(lp1464
I-1
aI18
asVprofitably
p1465
(lp1466
I-1
aI3
asVDollar
p1467
(lp1468
I-1
aI13
asVeconomies
p1469
(lp1470
I-1
aI4
asVair
p1471
(lp1472
I-1
aI10
asVaim
p1473
(lp1474
I-1
aI4
asVauction
p1475
(lp1476
I-1
aI6
asVnear
p1477
(lp1478
I-1
aI16
asVmoratorium
p1479
(lp1480
I-1
aI8
asVSalina
p1481
(lp1482
I-1
aI5
asVaid
p1483
(lp1484
I-1
aI14
asVproperty
p1485
(lp1486
I-1
aI18
asVelaborate
p1487
(lp1488
I-1
aI6
asVlaunched
p1489
(lp1490
I-1
aI11
asVLOC
p1491
(lp1492
I-1
aI4
asVseven
p1493
(lp1494
I-1
aI42
asVclimbed
p1495
(lp1496
I-1
aI4
asVpriced
p1497
(lp1498
I-1
aI40
asVplayed
p1499
(lp1500
I-1
aI4
asVWallenberg
p1501
(lp1502
I-1
aI3
asVspeech
p1503
(lp1504
I-1
aI6
asVcustomers
p1505
(lp1506
I-1
aI22
asVSugarman
p1507
(lp1508
I-1
aI7
asVexpenses
p1509
(lp1510
I-1
aI4
asVbarrels
p1511
(lp1512
I-1
aI19
asVplayer
p1513
(lp1514
I-1
aI5
asVGAO
p1515
(lp1516
I-1
aI8
asVexperts
p1517
(lp1518
I-1
aI6
asVDole
p1519
(lp1520
I-1
aI3
asVCapital
p1521
(lp1522
I-1
aI20
asVAntonson
p1523
(lp1524
I-1
aI3
asVvendor
p1525
(lp1526
I-1
aI3
asVconfident
p1527
(lp1528
I-1
aI7
asVgrown
p1529
(lp1530
I-1
aI4
asVdamaged
p1531
(lp1532
I-1
aI5
asVBoulangerie
p1533
(lp1534
I-1
aI4
asVpatent
p1535
(lp1536
I-1
aI4
asVoccupied
p1537
(lp1538
I-1
aI3
asVmake
p1539
(lp1540
I-1
aI60
asVcumulative
p1541
(lp1542
I-1
aI6
asVlinked
p1543
(lp1544
I-1
aI3
asVPratt
p1545
(lp1546
I-1
aI8
asVVolcker
p1547
(lp1548
I-1
aI41
asVGraaf
p1549
(lp1550
I-1
aI3
asVsplit
p1551
(lp1552
I-1
aI42
asVbig
p1553
(lp1554
I-1
aI6
asVvegetable
p1555
(lp1556
I-1
aI7
asVPresident
p1557
(lp1558
I-1
aI42
asVrupiah
p1559
(lp1560
I-1
aI3
asVshowing
p1561
(lp1562
I-1
aI6
asVHisham
p1563
(lp1564
I-1
aI3
asVfairly
p1565
(lp1566
I-1
aI5
asVsatellite
p1567
(lp1568
I-1
aI9
asVabolition
p1569
(lp1570
I-1
aI5
asVnil
p1571
(lp1572
I-1
aI12
asVInstitute
p1573
(lp1574
I-1
aI9
asVpermit
p1575
(lp1576
I-1
aI8
asVworkforce
p1577
(lp1578
I-1
aI5
asVcounterparts
p1579
(lp1580
I-1
aI4
asVhand
p1581
(lp1582
I-1
aI8
asVAngeles
p1583
(lp1584
I-1
aI12
asVhectares
p1585
(lp1586
I-1
aI4
asVPeking
p1587
(lp1588
I-1
aI12
asVOil
p1589
(lp1590
I-1
aI25
asVproducers
p1591
(lp1592
I-1
aI21
asVscale
p1593
(lp1594
I-1
aI10
asVBentsen
p1595
(lp1596
I-1
aI3
asVHome
p1597
(lp1598
I-1
aI14
asVY
p1599
(lp1600
I-1
aI8
asVguilders
p1601
(lp1602
I-1
aI7
asVopportunity
p1603
(lp1604
I-1
aI6
asVblamed
p1605
(lp1606
I-1
aI4
asVNYSE
p1607
(lp1608
I-1
aI3
asVintention
p1609
(lp1610
I-1
aI6
asVbutter
p1611
(lp1612
I-1
aI11
asVGates
p1613
(lp1614
I-1
aI20
asVsuitable
p1615
(lp1616
I-1
aI4
asVkept
p1617
(lp1618
I-1
aI6
asV1978
p1619
(lp1620
I-1
aI6
asV1976
p1621
(lp1622
I-1
aI4
asVfailing
p1623
(lp1624
I-1
aI6
asV1972
p1625
(lp1626
I-1
aI4
asVdeferred
p1627
(lp1628
I-1
aI3
asVsavings
p1629
(lp1630
I-1
aI11
asVcontact
p1631
(lp1632
I-1
aI10
asVGoldman
p1633
(lp1634
I-1
aI5
asVSpaventa
p1635
(lp1636
I-1
aI4
asVclaims
p1637
(lp1638
I-1
aI5
asVPortland
p1639
(lp1640
I-1
aI5
asV800
p1641
(lp1642
I-1
aI27
asVcorporate
p1643
(lp1644
I-1
aI26
asVinvestments
p1645
(lp1646
I-1
aI13
asVleft
p1647
(lp1648
I-1
aI17
asVAfter
p1649
(lp1650
I-1
aI14
asVfacto
p1651
(lp1652
I-1
aI3
asVRussell
p1653
(lp1654
I-1
aI4
asVquoted
p1655
(lp1656
I-1
aI29
asVyen
p1657
(lp1658
I-1
aI60
asVdistribute
p1659
(lp1660
I-1
aI4
asVDelegates
p1661
(lp1662
I-1
aI5
asVassigned
p1663
(lp1664
I-1
aI5
asVquotes
p1665
(lp1666
I-1
aI4
asVArabian
p1667
(lp1668
I-1
aI3
asVDay
p1669
(lp1670
I-1
aI6
asV32
p1671
(lp1672
I-1
aI32
asVsecure
p1673
(lp1674
I-1
aI3
asVadding
p1675
(lp1676
I-1
aI12
asVbuyers
p1677
(lp1678
I-1
aI9
asVfamily
p1679
(lp1680
I-1
aI26
asVgot
p1681
(lp1682
I-1
aI4
asVdevaluation
p1683
(lp1684
I-1
aI6
asVease
p1685
(lp1686
I-1
aI8
asVGas
p1687
(lp1688
I-1
aI18
asVideal
p1689
(lp1690
I-1
aI3
asVmainly
p1691
(lp1692
I-1
aI16
asVBaghdad
p1693
(lp1694
I-1
aI4
asVspread
p1695
(lp1696
I-1
aI5
asVboard
p1697
(lp1698
I-1
aI63
asVeasy
p1699
(lp1700
I-1
aI4
asVKuwait
p1701
(lp1702
I-1
aI22
asVNews
p1703
(lp1704
I-1
aI12
asVeast
p1705
(lp1706
I-1
aI4
asVFive
p1707
(lp1708
I-1
aI5
asVgave
p1709
(lp1710
I-1
aI20
asVEdouard
p1711
(lp1712
I-1
aI4
asV119
p1713
(lp1714
I-1
aI5
asVD
p1715
(lp1716
I-1
aI10
asVadvances
p1717
(lp1718
I-1
aI3
asVregard
p1719
(lp1720
I-1
aI3
asVChrysler
p1721
(lp1722
I-1
aI10
asVpossible
p1723
(lp1724
I-1
aI23
asVrocket
p1725
(lp1726
I-1
aI6
asVJohn
p1727
(lp1728
I-1
aI20
asVbarge
p1729
(lp1730
I-1
aI3
asVExco
p1731
(lp1732
I-1
aI6
asVjudge
p1733
(lp1734
I-1
aI5
asVOverseas
p1735
(lp1736
I-1
aI6
asVhighly
p1737
(lp1738
I-1
aI6
asVwillful
p1739
(lp1740
I-1
aI3
asVadvanced
p1741
(lp1742
I-1
aI7
asV58
p1743
(lp1744
I-1
aI12
asVutilisation
p1745
(lp1746
I-1
aI3
asVinstead
p1747
(lp1748
I-1
aI16
asVbpd
p1749
(lp1750
I-1
aI24
asV55
p1751
(lp1752
I-1
aI18
asV54
p1753
(lp1754
I-1
aI21
asV57
p1755
(lp1756
I-1
aI16
asVperforming
p1757
(lp1758
I-1
aI3
asV51
p1759
(lp1760
I-1
aI26
asV50
p1761
(lp1762
I-1
aI115
asV53
p1763
(lp1764
I-1
aI15
asV52
p1765
(lp1766
I-1
aI23
asVsecurities
p1767
(lp1768
I-1
aI82
asVfestivities
p1769
(lp1770
I-1
aI3
asVTrading
p1771
(lp1772
I-1
aI12
asVofficer
p1773
(lp1774
I-1
aI21
asVnight
p1775
(lp1776
I-1
aI11
asVsecurity
p1777
(lp1778
I-1
aI5
asVBridgend
p1779
(lp1780
I-1
aI3
asVSwedish
p1781
(lp1782
I-1
aI9
asVattorney
p1783
(lp1784
I-1
aI3
asVright
p1785
(lp1786
I-1
aI25
asVold
p1787
(lp1788
I-1
aI14
asVBangladesh
p1789
(lp1790
I-1
aI6
asVdeal
p1791
(lp1792
I-1
aI47
asVpeople
p1793
(lp1794
I-1
aI20
asVStores
p1795
(lp1796
I-1
aI3
asVsuccessfully
p1797
(lp1798
I-1
aI4
asVHughes
p1799
(lp1800
I-1
aI4
asVCommission
p1801
(lp1802
I-1
aI65
asVNippon
p1803
(lp1804
I-1
aI13
asVelection
p1805
(lp1806
I-1
aI9
asVBanque
p1807
(lp1808
I-1
aI8
asVseized
p1809
(lp1810
I-1
aI4
asVspecific
p1811
(lp1812
I-1
aI14
asVLife
p1813
(lp1814
I-1
aI13
asVproceeding
p1815
(lp1816
I-1
aI3
asVPermian
p1817
(lp1818
I-1
aI4
asVCuba
p1819
(lp1820
I-1
aI6
asVcomments
p1821
(lp1822
I-1
aI5
asVtotals
p1823
(lp1824
I-1
aI7
asVHk
p1825
(lp1826
I-1
aI13
asVasking
p1827
(lp1828
I-1
aI3
asVenterprises
p1829
(lp1830
I-1
aI7
asVunit
p1831
(lp1832
I-1
aI88
asVdenied
p1833
(lp1834
I-1
aI11
asVChris
p1835
(lp1836
I-1
aI3
asVindication
p1837
(lp1838
I-1
aI3
asV425
p1839
(lp1840
I-1
aI10
asVparticipation
p1841
(lp1842
I-1
aI5
asVRoyce
p1843
(lp1844
I-1
aI4
asVcore
p1845
(lp1846
I-1
aI5
asV305
p1847
(lp1848
I-1
aI3
asVmarketing
p1849
(lp1850
I-1
aI19
asVcorn
p1851
(lp1852
I-1
aI18
asVshareholders
p1853
(lp1854
I-1
aI52
asVDaily
p1855
(lp1856
I-1
aI4
asVdiscount
p1857
(lp1858
I-1
aI12
asVrestructuring
p1859
(lp1860
I-1
aI27
asVDeposit
p1861
(lp1862
I-1
aI4
asVupward
p1863
(lp1864
I-1
aI7
asVlosing
p1865
(lp1866
I-1
aI6
asVbrokerage
p1867
(lp1868
I-1
aI23
asVpost
p1869
(lp1870
I-1
aI11
asVmanufacturing
p1871
(lp1872
I-1
aI16
asVsuper
p1873
(lp1874
I-1
aI3
asVproperties
p1875
(lp1876
I-1
aI7
asVFirst
p1877
(lp1878
I-1
aI37
asVdlrs
p1879
(lp1880
I-1
aI931
asVAVX
p1881
(lp1882
I-1
aI3
asVnewspapers
p1883
(lp1884
I-1
aI8
asVmonths
p1885
(lp1886
I-1
aI76
asVZimbabwe
p1887
(lp1888
I-1
aI3
asVannualized
p1889
(lp1890
I-1
aI4
asVAustria
p1891
(lp1892
I-1
aI3
asVensure
p1893
(lp1894
I-1
aI11
asVbanker
p1895
(lp1896
I-1
aI10
asVsteadily
p1897
(lp1898
I-1
aI7
asVefforts
p1899
(lp1900
I-1
aI10
asVslightly
p1901
(lp1902
I-1
aI23
asVgenerate
p1903
(lp1904
I-1
aI4
asVMachines
p1905
(lp1906
I-1
aI5
asVGandhi
p1907
(lp1908
I-1
aI7
asVFed
p1909
(lp1910
I-1
aI45
asVExpress
p1911
(lp1912
I-1
aI44
asVFeb
p1913
(lp1914
I-1
aI24
asVfacility
p1915
(lp1916
I-1
aI19
asVcivil
p1917
(lp1918
I-1
aI8
asVpays
p1919
(lp1920
I-1
aI15
asVfloat
p1921
(lp1922
I-1
aI6
asVobtaining
p1923
(lp1924
I-1
aI3
asVMerchants
p1925
(lp1926
I-1
aI5
asVbalances
p1927
(lp1928
I-1
aI5
asVManagement
p1929
(lp1930
I-1
aI25
asVWeinberger
p1931
(lp1932
I-1
aI5
asVraises
p1933
(lp1934
I-1
aI6
asVKorean
p1935
(lp1936
I-1
aI4
asVreducing
p1937
(lp1938
I-1
aI8
asVbranch
p1939
(lp1940
I-1
aI8
asVCranston
p1941
(lp1942
I-1
aI6
asVseverely
p1943
(lp1944
I-1
aI4
asVcleared
p1945
(lp1946
I-1
aI5
asVexpired
p1947
(lp1948
I-1
aI5
asVsupport
p1949
(lp1950
I-1
aI56
asVinitial
p1951
(lp1952
I-1
aI26
asVlegislation
p1953
(lp1954
I-1
aI12
asVpayment
p1955
(lp1956
I-1
aI34
asVconservation
p1957
(lp1958
I-1
aI3
asVauthorized
p1959
(lp1960
I-1
aI6
asVway
p1961
(lp1962
I-1
aI33
asVresulted
p1963
(lp1964
I-1
aI10
asVSchlang
p1965
(lp1966
I-1
aI5
asVlaunching
p1967
(lp1968
I-1
aI3
asVhappy
p1969
(lp1970
I-1
aI4
asVlowest
p1971
(lp1972
I-1
aI10
asVhead
p1973
(lp1974
I-1
aI14
asVmedium
p1975
(lp1976
I-1
aI11
asVeconomics
p1977
(lp1978
I-1
aI3
asVoffering
p1979
(lp1980
I-1
aI61
asVoffer
p1981
(lp1982
I-1
aI119
asVJanuary
p1983
(lp1984
I-1
aI181
asVdifferences
p1985
(lp1986
I-1
aI4
asVoil
p1987
(lp1988
I-1
aI171
asVSystem
p1989
(lp1990
I-1
aI14
asVAkron
p1991
(lp1992
I-1
aI6
asVhear
p1993
(lp1994
I-1
aI3
asVsyndicate
p1995
(lp1996
I-1
aI8
asVZ
p1997
(lp1998
I-1
aI9
asVAmusements
p1999
(lp2000
I-1
aI11
asVanalyst
p2001
(lp2002
I-1
aI22
asV220
p2003
(lp2004
I-1
aI3
asVreset
p2005
(lp2006
I-1
aI4
asVGolden
p2007
(lp2008
I-1
aI4
asVHK
p2009
(lp2010
I-1
aI9
asVmarkets
p2011
(lp2012
I-1
aI62
asVBRT
p2013
(lp2014
I-1
aI3
asVDomestic
p2015
(lp2016
I-1
aI8
asVmaximum
p2017
(lp2018
I-1
aI14
asVpeso
p2019
(lp2020
I-1
aI13
asVCounty
p2021
(lp2022
I-1
aI9
asVmaturing
p2023
(lp2024
I-1
aI8
asVEngineering
p2025
(lp2026
I-1
aI5
asVpesos
p2027
(lp2028
I-1
aI16
asVunusually
p2029
(lp2030
I-1
aI3
asVplaintiffs
p2031
(lp2032
I-1
aI4
asV750
p2033
(lp2034
I-1
aI8
asV151
p2035
(lp2036
I-1
aI10
asVtonne
p2037
(lp2038
I-1
aI25
asV153
p2039
(lp2040
I-1
aI3
asV152
p2041
(lp2042
I-1
aI4
asV155
p2043
(lp2044
I-1
aI4
asV154
p2045
(lp2046
I-1
aI3
asV157
p2047
(lp2048
I-1
aI3
asVPersonal
p2049
(lp2050
I-1
aI9
asVrequest
p2051
(lp2052
I-1
aI25
asVcovers
p2053
(lp2054
I-1
aI6
asVevidence
p2055
(lp2056
I-1
aI6
asVVirgin
p2057
(lp2058
I-1
aI4
asVAIBD
p2059
(lp2060
I-1
aI10
asVaccounting
p2061
(lp2062
I-1
aI10
asVship
p2063
(lp2064
I-1
aI3
asVNASDAQ
p2065
(lp2066
I-1
aI4
asVBerne
p2067
(lp2068
I-1
aI3
asVnegotiations
p2069
(lp2070
I-1
aI40
asVphysical
p2071
(lp2072
I-1
aI4
asVFrancisco
p2073
(lp2074
I-1
aI9
asVNoting
p2075
(lp2076
I-1
aI3
asVeventual
p2077
(lp2078
I-1
aI3
asVfloor
p2079
(lp2080
I-1
aI4
asVagreeing
p2081
(lp2082
I-1
aI3
asVstake
p2083
(lp2084
I-1
aI57
asVgenerally
p2085
(lp2086
I-1
aI7
asVcrowns
p2087
(lp2088
I-1
aI6
asVnegotiators
p2089
(lp2090
I-1
aI6
asVcomposite
p2091
(lp2092
I-1
aI7
asVtin
p2093
(lp2094
I-1
aI22
asVinterested
p2095
(lp2096
I-1
aI12
asVrole
p2097
(lp2098
I-1
aI15
asVholding
p2099
(lp2100
I-1
aI15
asVdigital
p2101
(lp2102
I-1
aI4
asVtest
p2103
(lp2104
I-1
aI9
asVPhilippines
p2105
(lp2106
I-1
aI17
asVevergreen
p2107
(lp2108
I-1
aI3
asVexporter
p2109
(lp2110
I-1
aI5
asVE
p2111
(lp2112
I-1
aI17
asVMerrill
p2113
(lp2114
I-1
aI23
asVTrucks
p2115
(lp2116
I-1
aI3
asVEcus
p2117
(lp2118
I-1
aI6
asVmodels
p2119
(lp2120
I-1
aI10
asVKLM
p2121
(lp2122
I-1
aI7
asVpreceding
p2123
(lp2124
I-1
aI5
asVwelcome
p2125
(lp2126
I-1
aI4
asVutilities
p2127
(lp2128
I-1
aI4
asVdefence
p2129
(lp2130
I-1
aI13
asVfell
p2131
(lp2132
I-1
aI74
asVintent
p2133
(lp2134
I-1
aI10
asVexported
p2135
(lp2136
I-1
aI8
asVrising
p2137
(lp2138
I-1
aI21
asVSchiebel
p2139
(lp2140
I-1
aI3
asVauthorities
p2141
(lp2142
I-1
aI10
asVtransfers
p2143
(lp2144
I-1
aI4
asVweekend
p2145
(lp2146
I-1
aI13
asVbillion
p2147
(lp2148
I-1
aI483
asVreorganization
p2149
(lp2150
I-1
aI4
asVlonger
p2151
(lp2152
I-1
aI12
asVEstate
p2153
(lp2154
I-1
aI4
asVproposed
p2155
(lp2156
I-1
aI56
asVCharles
p2157
(lp2158
I-1
aI3
asVchanged
p2159
(lp2160
I-1
aI10
asVQuaker
p2161
(lp2162
I-1
aI3
asVdaily
p2163
(lp2164
I-1
aI23
asVfiling
p2165
(lp2166
I-1
aI19
asVeliminate
p2167
(lp2168
I-1
aI5
asVpremiums
p2169
(lp2170
I-1
aI6
asVtime
p2171
(lp2172
I-1
aI88
asVpush
p2173
(lp2174
I-1
aI6
asVAMC
p2175
(lp2176
I-1
aI14
asVrestored
p2177
(lp2178
I-1
aI4
asVmanaged
p2179
(lp2180
I-1
aI6
asVchain
p2181
(lp2182
I-1
aI3
asVaffair
p2183
(lp2184
I-1
aI6
asVSun
p2185
(lp2186
I-1
aI6
asVglobal
p2187
(lp2188
I-1
aI11
asVgap
p2189
(lp2190
I-1
aI9
asVfocus
p2191
(lp2192
I-1
aI4
asVdeliveries
p2193
(lp2194
I-1
aI13
asVmanager
p2195
(lp2196
I-1
aI45
asVRepublic
p2197
(lp2198
I-1
aI4
asVbattle
p2199
(lp2200
I-1
aI3
asVHu
p2201
(lp2202
I-1
aI5
asVLouisiana
p2203
(lp2204
I-1
aI6
asVmilk
p2205
(lp2206
I-1
aI4
asVToday
p2207
(lp2208
I-1
aI3
asVhold
p2209
(lp2210
I-1
aI24
asVColumbia
p2211
(lp2212
I-1
aI10
asVzone
p2213
(lp2214
I-1
aI5
asVFrans
p2215
(lp2216
I-1
aI3
asVtariff
p2217
(lp2218
I-1
aI3
asVsuspending
p2219
(lp2220
I-1
aI3
asVRobur
p2221
(lp2222
I-1
aI3
asVW
p2223
(lp2224
I-1
aI10
asV0
p2225
(lp2226
I-1
aI130
asVcharge
p2227
(lp2228
I-1
aI10
asVnewsprint
p2229
(lp2230
I-1
aI4
asVpromoting
p2231
(lp2232
I-1
aI5
asVmarks
p2233
(lp2234
I-1
aI20
asVPurolator
p2235
(lp2236
I-1
aI19
asVsovereignty
p2237
(lp2238
I-1
aI3
asVcircumstances
p2239
(lp2240
I-1
aI4
asVswap
p2241
(lp2242
I-1
aI6
asV817
p2243
(lp2244
I-1
aI3
asVCantrex
p2245
(lp2246
I-1
aI3
asVEquatorial
p2247
(lp2248
I-1
aI12
asVfederation
p2249
(lp2250
I-1
aI3
asVadvantage
p2251
(lp2252
I-1
aI8
asVCountries
p2253
(lp2254
I-1
aI5
asVcheap
p2255
(lp2256
I-1
aI3
asVChirac
p2257
(lp2258
I-1
aI5
asVchoice
p2259
(lp2260
I-1
aI8
asVfees
p2261
(lp2262
I-1
aI7
asVDivision
p2263
(lp2264
I-1
aI3
asVPlus
p2265
(lp2266
I-1
aI3
asVservicing
p2267
(lp2268
I-1
aI4
asVtanks
p2269
(lp2270
I-1
aI5
asVadvised
p2271
(lp2272
I-1
aI3
asVFinancial
p2273
(lp2274
I-1
aI21
asVexact
p2275
(lp2276
I-1
aI5
asVminute
p2277
(lp2278
I-1
aI5
asVroom
p2279
(lp2280
I-1
aI3
asVpresented
p2281
(lp2282
I-1
aI10
asVdid
p2283
(lp2284
I-1
aI67
asVKingdom
p2285
(lp2286
I-1
aI3
asVsteeply
p2287
(lp2288
I-1
aI3
asVTax
p2289
(lp2290
I-1
aI6
asVstandards
p2291
(lp2292
I-1
aI7
asVleave
p2293
(lp2294
I-1
aI11
asVitem
p2295
(lp2296
I-1
aI8
asVsettle
p2297
(lp2298
I-1
aI4
asVteam
p2299
(lp2300
I-1
aI5
asVquick
p2301
(lp2302
I-1
aI4
asVspeculation
p2303
(lp2304
I-1
aI14
asVHe
p2305
(lp2306
I-1
aI153
asVstiffer
p2307
(lp2308
I-1
aI3
asVGeorge
p2309
(lp2310
I-1
aI13
asVadded
p2311
(lp2312
I-1
aI98
asVprevent
p2313
(lp2314
I-1
aI7
asVsays
p2315
(lp2316
I-1
aI23
asVregret
p2317
(lp2318
I-1
aI3
asVfindings
p2319
(lp2320
I-1
aI3
asVtrend
p2321
(lp2322
I-1
aI8
asVdealing
p2323
(lp2324
I-1
aI9
asVCME
p2325
(lp2326
I-1
aI4
asVNova
p2327
(lp2328
I-1
aI3
asVsign
p2329
(lp2330
I-1
aI3
asVWaikato
p2331
(lp2332
I-1
aI4
asVslowed
p2333
(lp2334
I-1
aI6
asVcost
p2335
(lp2336
I-1
aI45
asVM1
p2337
(lp2338
I-1
aI4
asVNorthwest
p2339
(lp2340
I-1
aI5
asVM3
p2341
(lp2342
I-1
aI6
asVM2
p2343
(lp2344
I-1
aI4
asVBryson
p2345
(lp2346
I-1
aI6
asVbales
p2347
(lp2348
I-1
aI5
asVtargets
p2349
(lp2350
I-1
aI6
asVcargo
p2351
(lp2352
I-1
aI4
asVappear
p2353
(lp2354
I-1
aI8
asVrepresentative
p2355
(lp2356
I-1
aI6
asVSubscriptions
p2357
(lp2358
I-1
aI3
asVconsortium
p2359
(lp2360
I-1
aI4
asVassistance
p2361
(lp2362
I-1
aI4
asVdisease
p2363
(lp2364
I-1
aI4
asVfavour
p2365
(lp2366
I-1
aI3
asVshares
p2367
(lp2368
I-1
aI195
asVFord
p2369
(lp2370
I-1
aI22
asVcurrent
p2371
(lp2372
I-1
aI78
asV525
p2373
(lp2374
I-1
aI4
asVCruz
p2375
(lp2376
I-1
aI6
asVgoes
p2377
(lp2378
I-1
aI4
asVDuring
p2379
(lp2380
I-1
aI5
asVfalling
p2381
(lp2382
I-1
aI17
asVstaff
p2383
(lp2384
I-1
aI16
asVboost
p2385
(lp2386
I-1
aI19
asVfilled
p2387
(lp2388
I-1
aI3
asVcollateral
p2389
(lp2390
I-1
aI3
asVtotalling
p2391
(lp2392
I-1
aI9
asVjury
p2393
(lp2394
I-1
aI5
asVpromissory
p2395
(lp2396
I-1
aI3
asVheavily
p2397
(lp2398
I-1
aI6
asV304
p2399
(lp2400
I-1
aI3
asVclerk
p2401
(lp2402
I-1
aI3
asVunderstanding
p2403
(lp2404
I-1
aI3
asVwater
p2405
(lp2406
I-1
aI7
asVcorporation
p2407
(lp2408
I-1
aI6
asVgroups
p2409
(lp2410
I-1
aI8
asVLtd
p2411
(lp2412
I-1
aI132
asVDistribution
p2413
(lp2414
I-1
aI3
asVdwindling
p2415
(lp2416
I-1
aI3
asVappears
p2417
(lp2418
I-1
aI7
asVchange
p2419
(lp2420
I-1
aI39
asVWarner
p2421
(lp2422
I-1
aI9
asVMD
p2423
(lp2424
I-1
aI3
asVunidentified
p2425
(lp2426
I-1
aI3
asVDean
p2427
(lp2428
I-1
aI12
asVredemption
p2429
(lp2430
I-1
aI14
asVhealthy
p2431
(lp2432
I-1
aI4
asVearned
p2433
(lp2434
I-1
aI9
asVfunded
p2435
(lp2436
I-1
aI3
asVSweden
p2437
(lp2438
I-1
aI7
asVtrial
p2439
(lp2440
I-1
aI3
asVAssociates
p2441
(lp2442
I-1
aI6
asVMS
p2443
(lp2444
I-1
aI6
asVconfirmation
p2445
(lp2446
I-1
aI11
asVIRNA
p2447
(lp2448
I-1
aI3
asVTechnology
p2449
(lp2450
I-1
aI7
asVDiablo
p2451
(lp2452
I-1
aI3
asVuseful
p2453
(lp2454
I-1
aI5
asVraise
p2455
(lp2456
I-1
aI18
asVsoybeans
p2457
(lp2458
I-1
aI16
asVlending
p2459
(lp2460
I-1
aI20
asVprefer
p2461
(lp2462
I-1
aI3
asVmarked
p2463
(lp2464
I-1
aI6
asV89
p2465
(lp2466
I-1
aI5
asVlicensing
p2467
(lp2468
I-1
aI13
asVDOS
p2469
(lp2470
I-1
aI6
asVwithdrawing
p2471
(lp2472
I-1
aI4
asVNikko
p2473
(lp2474
I-1
aI7
asVcrisis
p2475
(lp2476
I-1
aI21
asVEcuador
p2477
(lp2478
I-1
aI3
asVhotels
p2479
(lp2480
I-1
aI4
asVWEDGE
p2481
(lp2482
I-1
aI6
asVAustralia
p2483
(lp2484
I-1
aI21
asVAugust
p2485
(lp2486
I-1
aI20
asVworking
p2487
(lp2488
I-1
aI24
asVpositive
p2489
(lp2490
I-1
aI9
asVangry
p2491
(lp2492
I-1
aI3
asVLa
p2493
(lp2494
I-1
aI9
asVvisit
p2495
(lp2496
I-1
aI11
asVpredictions
p2497
(lp2498
I-1
aI3
asVinsider
p2499
(lp2500
I-1
aI4
asVlive
p2501
(lp2502
I-1
aI3
asVVisa
p2503
(lp2504
I-1
aI4
asVopposed
p2505
(lp2506
I-1
aI8
asVmemory
p2507
(lp2508
I-1
aI11
asVfilms
p2509
(lp2510
I-1
aI4
asVscope
p2511
(lp2512
I-1
aI3
asVassociated
p2513
(lp2514
I-1
aI5
asVprev
p2515
(lp2516
I-1
aI8
asVtoday
p2517
(lp2518
I-1
aI121
asVsharing
p2519
(lp2520
I-1
aI3
asVF
p2521
(lp2522
I-1
aI21
asVThese
p2523
(lp2524
I-1
aI7
asVapparent
p2525
(lp2526
I-1
aI6
asVleaving
p2527
(lp2528
I-1
aI3
asVComplaints
p2529
(lp2530
I-1
aI3
asVlong
p2531
(lp2532
I-1
aI46
asVcontaining
p2533
(lp2534
I-1
aI7
asVcases
p2535
(lp2536
I-1
aI8
asVeffort
p2537
(lp2538
I-1
aI12
asVbehalf
p2539
(lp2540
I-1
aI3
asVbushels
p2541
(lp2542
I-1
aI5
asVfly
p2543
(lp2544
I-1
aI3
asVorganizations
p2545
(lp2546
I-1
aI5
asVvalued
p2547
(lp2548
I-1
aI12
asVedible
p2549
(lp2550
I-1
aI4
asVindicates
p2551
(lp2552
I-1
aI6
asVGerman
p2553
(lp2554
I-1
aI18
asVcar
p2555
(lp2556
I-1
aI12
asVoriginally
p2557
(lp2558
I-1
aI6
asVcap
p2559
(lp2560
I-1
aI3
asVLebanon
p2561
(lp2562
I-1
aI3
asVPacific
p2563
(lp2564
I-1
aI28
asVbelieves
p2565
(lp2566
I-1
aI7
asVdistricts
p2567
(lp2568
I-1
aI4
asVimpasse
p2569
(lp2570
I-1
aI6
asVprinting
p2571
(lp2572
I-1
aI3
asVvalues
p2573
(lp2574
I-1
aI7
asVachieve
p2575
(lp2576
I-1
aI8
asVbelieved
p2577
(lp2578
I-1
aI14
asVOur
p2579
(lp2580
I-1
aI10
asVarrive
p2581
(lp2582
I-1
aI3
asVNewsweek
p2583
(lp2584
I-1
aI3
asVMr
p2585
(lp2586
I-1
aI3
asVsocial
p2587
(lp2588
I-1
aI4
asVheart
p2589
(lp2590
I-1
aI4
asVrebuffed
p2591
(lp2592
I-1
aI3
asVwant
p2593
(lp2594
I-1
aI17
asVstream
p2595
(lp2596
I-1
aI3
asVFederal
p2597
(lp2598
I-1
aI48
asVexpanding
p2599
(lp2600
I-1
aI9
asVchip
p2601
(lp2602
I-1
aI15
asVagent
p2603
(lp2604
I-1
aI4
asVLogician
p2605
(lp2606
I-1
aI5
asVSchoufour
p2607
(lp2608
I-1
aI3
asV238
p2609
(lp2610
I-1
aI3
asVBAC
p2611
(lp2612
I-1
aI4
asVunveiled
p2613
(lp2614
I-1
aI4
asVallowed
p2615
(lp2616
I-1
aI9
asV234
p2617
(lp2618
I-1
aI6
asVhandle
p2619
(lp2620
I-1
aI6
asV236
p2621
(lp2622
I-1
aI3
asV230
p2623
(lp2624
I-1
aI4
asVoccur
p2625
(lp2626
I-1
aI3
asVparliamentary
p2627
(lp2628
I-1
aI4
asVTerms
p2629
(lp2630
I-1
aI10
asVwinter
p2631
(lp2632
I-1
aI5
asVMarketing
p2633
(lp2634
I-1
aI4
asVdivided
p2635
(lp2636
I-1
aI5
asVmeans
p2637
(lp2638
I-1
aI12
asVmagazine
p2639
(lp2640
I-1
aI5
asV1
p2641
(lp2642
I-1
aI629
asVounce
p2643
(lp2644
I-1
aI7
asVfourth
p2645
(lp2646
I-1
aI27
asVH
p2647
(lp2648
I-1
aI17
asVplus
p2649
(lp2650
I-1
aI24
asVInterstate
p2651
(lp2652
I-1
aI5
asVeconomy
p2653
(lp2654
I-1
aI65
asVproduct
p2655
(lp2656
I-1
aI31
asV145
p2657
(lp2658
I-1
aI4
asV143
p2659
(lp2660
I-1
aI3
asV140
p2661
(lp2662
I-1
aI15
asVEagle
p2663
(lp2664
I-1
aI4
asVliberalisation
p2665
(lp2666
I-1
aI4
asVAverage
p2667
(lp2668
I-1
aI4
asVuse
p2669
(lp2670
I-1
aI42
asVspot
p2671
(lp2672
I-1
aI20
asV148
p2673
(lp2674
I-1
aI4
asVEarly
p2675
(lp2676
I-1
aI3
asVapplications
p2677
(lp2678
I-1
aI14
asVmembership
p2679
(lp2680
I-1
aI3
asVproduce
p2681
(lp2682
I-1
aI22
asV132
p2683
(lp2684
I-1
aI5
asVdesigned
p2685
(lp2686
I-1
aI23
asVdate
p2687
(lp2688
I-1
aI42
asVdrastic
p2689
(lp2690
I-1
aI3
asVemployers
p2691
(lp2692
I-1
aI8
asVdata
p2693
(lp2694
I-1
aI24
asVgrow
p2695
(lp2696
I-1
aI7
asVrecovery
p2697
(lp2698
I-1
aI6
asVnatural
p2699
(lp2700
I-1
aI15
asVGuaranty
p2701
(lp2702
I-1
aI5
asVsectors
p2703
(lp2704
I-1
aI7
asVjoint
p2705
(lp2706
I-1
aI32
asVBaden
p2707
(lp2708
I-1
aI3
asVNCR
p2709
(lp2710
I-1
aI5
asVfutures
p2711
(lp2712
I-1
aI55
asVborrowing
p2713
(lp2714
I-1
aI17
asVyielding
p2715
(lp2716
I-1
aI3
asVOngpin
p2717
(lp2718
I-1
aI26
asVInland
p2719
(lp2720
I-1
aI5
asVSources
p2721
(lp2722
I-1
aI3
asVswitch
p2723
(lp2724
I-1
aI4
asVNursery
p2725
(lp2726
I-1
aI5
asVtruck
p2727
(lp2728
I-1
aI3
asVdeposit
p2729
(lp2730
I-1
aI15
asVdeclines
p2731
(lp2732
I-1
aI8
asVequities
p2733
(lp2734
I-1
aI4
asVrepresentation
p2735
(lp2736
I-1
aI5
asVtalk
p2737
(lp2738
I-1
aI11
asVFNV
p2739
(lp2740
I-1
aI6
asVMississippi
p2741
(lp2742
I-1
aI3
asVmisapplication
p2743
(lp2744
I-1
aI3
asVMontedison
p2745
(lp2746
I-1
aI4
asVpointed
p2747
(lp2748
I-1
aI9
asVdisplayed
p2749
(lp2750
I-1
aI3
asVraised
p2751
(lp2752
I-1
aI32
asVmaking
p2753
(lp2754
I-1
aI33
asVyears
p2755
(lp2756
I-1
aI114
asVJan
p2757
(lp2758
I-1
aI7
asVcourse
p2759
(lp2760
I-1
aI6
asVShr
p2761
(lp2762
I-1
aI23
asVStates
p2763
(lp2764
I-1
aI27
asVshake
p2765
(lp2766
I-1
aI3
asVspinoff
p2767
(lp2768
I-1
aI9
asVstatements
p2769
(lp2770
I-1
aI6
asVcold
p2771
(lp2772
I-1
aI3
asVBolivia
p2773
(lp2774
I-1
aI6
asV86
p2775
(lp2776
I-1
aI31
asVpolice
p2777
(lp2778
I-1
aI7
asVmonitor
p2779
(lp2780
I-1
aI6
asVchips
p2781
(lp2782
I-1
aI20
asVorganisation
p2783
(lp2784
I-1
aI5
asVamounted
p2785
(lp2786
I-1
aI3
asVtroubles
p2787
(lp2788
I-1
aI4
asVwindow
p2789
(lp2790
I-1
aI5
asVWTC
p2791
(lp2792
I-1
aI7
asVWhitney
p2793
(lp2794
I-1
aI3
asVlisting
p2795
(lp2796
I-1
aI10
asVpolicy
p2797
(lp2798
I-1
aI37
asVmail
p2799
(lp2800
I-1
aI10
asV930
p2801
(lp2802
I-1
aI4
asVpetition
p2803
(lp2804
I-1
aI7
asVhappened
p2805
(lp2806
I-1
aI3
asVclosure
p2807
(lp2808
I-1
aI5
asVnon
p2809
(lp2810
I-1
aI48
asVMarais
p2811
(lp2812
I-1
aI3
asVCommodities
p2813
(lp2814
I-1
aI4
asVhalt
p2815
(lp2816
I-1
aI6
asVRogers
p2817
(lp2818
I-1
aI3
asVviews
p2819
(lp2820
I-1
aI5
asVsweetened
p2821
(lp2822
I-1
aI3
asVundisclosed
p2823
(lp2824
I-1
aI14
asVintroduce
p2825
(lp2826
I-1
aI13
asVnation
p2827
(lp2828
I-1
aI15
asVSheikh
p2829
(lp2830
I-1
aI11
asVSoriano
p2831
(lp2832
I-1
aI5
asVDevelle
p2833
(lp2834
I-1
aI3
asVdrilling
p2835
(lp2836
I-1
aI8
asV1953
p2837
(lp2838
I-1
aI3
asVhalf
p2839
(lp2840
I-1
aI37
asVTower
p2841
(lp2842
I-1
aI18
asVLaboratories
p2843
(lp2844
I-1
aI3
asVprovision
p2845
(lp2846
I-1
aI20
asVdiscuss
p2847
(lp2848
I-1
aI10
asVsubordinated
p2849
(lp2850
I-1
aI15
asVmatched
p2851
(lp2852
I-1
aI5
asVterm
p2853
(lp2854
I-1
aI65
asVattorneys
p2855
(lp2856
I-1
aI3
asVtrucks
p2857
(lp2858
I-1
aI7
asVstabilize
p2859
(lp2860
I-1
aI3
asVOPEC
p2861
(lp2862
I-1
aI54
asVIII
p2863
(lp2864
I-1
aI4
asVdrop
p2865
(lp2866
I-1
aI20
asV47
p2867
(lp2868
I-1
aI14
asVimprovements
p2869
(lp2870
I-1
aI4
asVMines
p2871
(lp2872
I-1
aI3
asVAgricultural
p2873
(lp2874
I-1
aI4
asVentirely
p2875
(lp2876
I-1
aI4
asVquarter
p2877
(lp2878
I-1
aI95
asVshareholder
p2879
(lp2880
I-1
aI14
asVAirbus
p2881
(lp2882
I-1
aI12
asVZealand
p2883
(lp2884
I-1
aI16
asVsquare
p2885
(lp2886
I-1
aI5
asVfired
p2887
(lp2888
I-1
aI4
asVHoldings
p2889
(lp2890
I-1
aI28
asVOrganisation
p2891
(lp2892
I-1
aI5
asVrevised
p2893
(lp2894
I-1
aI39
asVLower
p2895
(lp2896
I-1
aI7
asVowing
p2897
(lp2898
I-1
aI3
asVex
p2899
(lp2900
I-1
aI6
asVbegun
p2901
(lp2902
I-1
aI5
asVyear
p2903
(lp2904
I-1
aI551
asVdistributor
p2905
(lp2906
I-1
aI3
asVet
p2907
(lp2908
I-1
aI3
asVredeem
p2909
(lp2910
I-1
aI12
asVKong
p2911
(lp2912
I-1
aI29
asVrefined
p2913
(lp2914
I-1
aI3
asVtried
p2915
(lp2916
I-1
aI7
asVliving
p2917
(lp2918
I-1
aI6
asVshown
p2919
(lp2920
I-1
aI5
asVcontainer
p2921
(lp2922
I-1
aI3
asVopened
p2923
(lp2924
I-1
aI6
asV790
p2925
(lp2926
I-1
aI3
asVprofit
p2927
(lp2928
I-1
aI48
asVMichigan
p2929
(lp2930
I-1
aI3
asVactivities
p2931
(lp2932
I-1
aI19
asVRMJ
p2933
(lp2934
I-1
aI20
asVincrease
p2935
(lp2936
I-1
aI85
asVseriously
p2937
(lp2938
I-1
aI5
asVinvestigation
p2939
(lp2940
I-1
aI5
asVsuggesting
p2941
(lp2942
I-1
aI4
asVformula
p2943
(lp2944
I-1
aI3
asVprotected
p2945
(lp2946
I-1
aI5
asVreceiving
p2947
(lp2948
I-1
aI3
asVCommerce
p2949
(lp2950
I-1
aI13
asVlag
p2951
(lp2952
I-1
aI3
asVcurbs
p2953
(lp2954
I-1
aI4
asVCitibank
p2955
(lp2956
I-1
aI6
asVWestpac
p2957
(lp2958
I-1
aI6
asVcars
p2959
(lp2960
I-1
aI25
asVmillion
p2961
(lp2962
I-1
aI7
asVincentives
p2963
(lp2964
I-1
aI8
asVpumping
p2965
(lp2966
I-1
aI4
asVpossibility
p2967
(lp2968
I-1
aI11
asVquite
p2969
(lp2970
I-1
aI4
asVunwanted
p2971
(lp2972
I-1
aI5
asVLambert
p2973
(lp2974
I-1
aI3
asVsuccess
p2975
(lp2976
I-1
aI8
asVrepurchase
p2977
(lp2978
I-1
aI8
asVSecurity
p2979
(lp2980
I-1
aI11
asVore
p2981
(lp2982
I-1
aI4
asVremainder
p2983
(lp2984
I-1
aI5
asVOptions
p2985
(lp2986
I-1
aI3
asVWhampoa
p2987
(lp2988
I-1
aI3
asVcare
p2989
(lp2990
I-1
aI3
asVadvance
p2991
(lp2992
I-1
aI4
asVgilts
p2993
(lp2994
I-1
aI7
asVcarnival
p2995
(lp2996
I-1
aI7
asVministry
p2997
(lp2998
I-1
aI20
asVBattery
p2999
(lp3000
I-1
aI6
asVBuckhorn
p3001
(lp3002
I-1
aI5
asVMatsumoto
p3003
(lp3004
I-1
aI3
asVinitiate
p3005
(lp3006
I-1
aI3
asVindustrialised
p3007
(lp3008
I-1
aI4
asVmassive
p3009
(lp3010
I-1
aI6
asVroutes
p3011
(lp3012
I-1
aI3
asVHungary
p3013
(lp3014
I-1
aI6
asVErie
p3015
(lp3016
I-1
aI3
asVthink
p3017
(lp3018
I-1
aI23
asVBaka
p3019
(lp3020
I-1
aI3
asVBrazil
p3021
(lp3022
I-1
aI107
asVOntario
p3023
(lp3024
I-1
aI6
asVsaving
p3025
(lp3026
I-1
aI4
asVrevenue
p3027
(lp3028
I-1
aI20
asVThere
p3029
(lp3030
I-1
aI25
asVRoyal
p3031
(lp3032
I-1
aI4
asVAsia
p3033
(lp3034
I-1
aI9
asVhopes
p3035
(lp3036
I-1
aI11
asVreopen
p3037
(lp3038
I-1
aI4
asVRates
p3039
(lp3040
I-1
aI7
asVfast
p3041
(lp3042
I-1
aI5
asVdirectly
p3043
(lp3044
I-1
aI8
asVemployment
p3045
(lp3046
I-1
aI11
asVvote
p3047
(lp3048
I-1
aI12
asVimpossible
p3049
(lp3050
I-1
aI7
asVways
p3051
(lp3052
I-1
aI8
asVopen
p3053
(lp3054
I-1
aI25
asVtomorrow
p3055
(lp3056
I-1
aI23
asVsize
p3057
(lp3058
I-1
aI6
asVcity
p3059
(lp3060
I-1
aI12
asVlittle
p3061
(lp3062
I-1
aI19
asVSuffield
p3063
(lp3064
I-1
aI4
asVofficials
p3065
(lp3066
I-1
aI82
asVsilent
p3067
(lp3068
I-1
aI3
asVMonday
p3069
(lp3070
I-1
aI3
asVpharmaceuticals
p3071
(lp3072
I-1
aI4
asVCommercial
p3073
(lp3074
I-1
aI10
asVresponse
p3075
(lp3076
I-1
aI15
asVindicate
p3077
(lp3078
I-1
aI3
asV2
p3079
(lp3080
I-1
aI402
asVSEC
p3081
(lp3082
I-1
aI39
asVQuarto
p3083
(lp3084
I-1
aI3
asVSuch
p3085
(lp3086
I-1
aI3
asVPost
p3087
(lp3088
I-1
aI3
asVData
p3089
(lp3090
I-1
aI12
asVSpain
p3091
(lp3092
I-1
aI5
asVmining
p3093
(lp3094
I-1
aI12
asVfraction
p3095
(lp3096
I-1
aI3
asVcourier
p3097
(lp3098
I-1
aI10
asVcope
p3099
(lp3100
I-1
aI3
asVownership
p3101
(lp3102
I-1
aI6
asVseason
p3103
(lp3104
I-1
aI14
asVCalny
p3105
(lp3106
I-1
aI7
asVreleased
p3107
(lp3108
I-1
aI13
asVsimply
p3109
(lp3110
I-1
aI3
asVmaize
p3111
(lp3112
I-1
aI13
asVprobably
p3113
(lp3114
I-1
aI21
asVcopy
p3115
(lp3116
I-1
aI3
asVrepresenting
p3117
(lp3118
I-1
aI12
asVinterbank
p3119
(lp3120
I-1
aI6
asVspecify
p3121
(lp3122
I-1
aI6
asVpopulation
p3123
(lp3124
I-1
aI4
asV11
p3125
(lp3126
I-1
aI63
asV10
p3127
(lp3128
I-1
aI152
asVtelevision
p3129
(lp3130
I-1
aI17
asVunderwritten
p3131
(lp3132
I-1
aI5
asV15
p3133
(lp3134
I-1
aI127
asV14
p3135
(lp3136
I-1
aI46
asV17
p3137
(lp3138
I-1
aI37
asV16
p3139
(lp3140
I-1
aI67
asVdepressed
p3141
(lp3142
I-1
aI7
asVrival
p3143
(lp3144
I-1
aI3
asVrequire
p3145
(lp3146
I-1
aI6
asVdiplomatic
p3147
(lp3148
I-1
aI3
asVoptimism
p3149
(lp3150
I-1
aI7
asVwar
p3151
(lp3152
I-1
aI9
asVspokeswoman
p3153
(lp3154
I-1
aI15
asVSears
p3155
(lp3156
I-1
aI7
asVfuture
p3157
(lp3158
I-1
aI49
asVriyals
p3159
(lp3160
I-1
aI6
asVdisagreed
p3161
(lp3162
I-1
aI3
asVventure
p3163
(lp3164
I-1
aI25
asVMaxwell
p3165
(lp3166
I-1
aI5
asVcards
p3167
(lp3168
I-1
aI3
asVoutcome
p3169
(lp3170
I-1
aI7
asVpublished
p3171
(lp3172
I-1
aI14
asVpre
p3173
(lp3174
I-1
aI14
asVSteel
p3175
(lp3176
I-1
aI13
asVcontentious
p3177
(lp3178
I-1
aI3
asVinvestors
p3179
(lp3180
I-1
aI31
asVMarcos
p3181
(lp3182
I-1
aI3
asVacknowledged
p3183
(lp3184
I-1
aI5
asVtopics
p3185
(lp3186
I-1
aI3
asVmeasure
p3187
(lp3188
I-1
aI6
asVPhiladelphia
p3189
(lp3190
I-1
aI5
asVJapanese
p3191
(lp3192
I-1
aI89
asVmedical
p3193
(lp3194
I-1
aI6
asVsay
p3195
(lp3196
I-1
aI50
asVCall
p3197
(lp3198
I-1
aI4
asVCombined
p3199
(lp3200
I-1
aI4
asVKadoorie
p3201
(lp3202
I-1
aI6
asVDNA
p3203
(lp3204
I-1
aI3
asVrecover
p3205
(lp3206
I-1
aI5
asVsaw
p3207
(lp3208
I-1
aI11
asVconversion
p3209
(lp3210
I-1
aI7
asVform
p3211
(lp3212
I-1
aI21
asVUCPB
p3213
(lp3214
I-1
aI6
asVmanufacturers
p3215
(lp3216
I-1
aI6
asVTelcom
p3217
(lp3218
I-1
aI3
asVaside
p3219
(lp3220
I-1
aI3
asVBeesley
p3221
(lp3222
I-1
aI5
asVnote
p3223
(lp3224
I-1
aI10
asVequipment
p3225
(lp3226
I-1
aI17
asVEcu
p3227
(lp3228
I-1
aI3
asVpotential
p3229
(lp3230
I-1
aI16
asVGMB
p3231
(lp3232
I-1
aI5
asVobjective
p3233
(lp3234
I-1
aI3
asVperformance
p3235
(lp3236
I-1
aI20
asVDu
p3237
(lp3238
I-1
aI4
asVInvestor
p3239
(lp3240
I-1
aI5
asVLloyd
p3241
(lp3242
I-1
aI4
asV200
p3243
(lp3244
I-1
aI48
asVbegin
p3245
(lp3246
I-1
aI23
asVTsukihara
p3247
(lp3248
I-1
aI3
asVmultiple
p3249
(lp3250
I-1
aI6
asVDealers
p3251
(lp3252
I-1
aI10
asVnormal
p3253
(lp3254
I-1
aI5
asVMalaysian
p3255
(lp3256
I-1
aI4
asVprice
p3257
(lp3258
I-1
aI141
asVPhilippine
p3259
(lp3260
I-1
aI8
asVpaid
p3261
(lp3262
I-1
aI36
asVspecialty
p3263
(lp3264
I-1
aI7
asVprinted
p3265
(lp3266
I-1
aI4
asVhoped
p3267
(lp3268
I-1
aI6
asVplanning
p3269
(lp3270
I-1
aI10
asVTrust
p3271
(lp3272
I-1
aI25
asVespecially
p3273
(lp3274
I-1
aI6
asVfailure
p3275
(lp3276
I-1
aI10
asVNRC
p3277
(lp3278
I-1
aI7
asVaverage
p3279
(lp3280
I-1
aI39
asVlater
p3281
(lp3282
I-1
aI37
asVimplications
p3283
(lp3284
I-1
aI4
asVsale
p3285
(lp3286
I-1
aI66
asVorder
p3287
(lp3288
I-1
aI24
asVmanaging
p3289
(lp3290
I-1
aI11
asVMI
p3291
(lp3292
I-1
aI3
asVrefining
p3293
(lp3294
I-1
aI3
asVpattern
p3295
(lp3296
I-1
aI3
asVprofessional
p3297
(lp3298
I-1
aI3
asVsenior
p3299
(lp3300
I-1
aI51
asVliquidity
p3301
(lp3302
I-1
aI16
asVlaws
p3303
(lp3304
I-1
aI17
asVrating
p3305
(lp3306
I-1
aI12
asVLukman
p3307
(lp3308
I-1
aI7
asVshot
p3309
(lp3310
I-1
aI4
asVsurplus
p3311
(lp3312
I-1
aI53
asVWhittaker
p3313
(lp3314
I-1
aI3
asVfiled
p3315
(lp3316
I-1
aI14
asVallegations
p3317
(lp3318
I-1
aI3
asVBalladur
p3319
(lp3320
I-1
aI5
asVmerit
p3321
(lp3322
I-1
aI6
asVResearch
p3323
(lp3324
I-1
aI8
asVSwitzerland
p3325
(lp3326
I-1
aI20
asVReuters
p3327
(lp3328
I-1
aI50
asVSystems
p3329
(lp3330
I-1
aI23
asVsubsidiary
p3331
(lp3332
I-1
aI47
asVStephen
p3333
(lp3334
I-1
aI4
asVBundesbank
p3335
(lp3336
I-1
aI19
asVinjection
p3337
(lp3338
I-1
aI3
asVfifth
p3339
(lp3340
I-1
aI3
asVground
p3341
(lp3342
I-1
aI4
asVWe
p3343
(lp3344
I-1
aI52
asVslow
p3345
(lp3346
I-1
aI7
asVratio
p3347
(lp3348
I-1
aI10
asVdlr
p3349
(lp3350
I-1
aI115
asVKansas
p3351
(lp3352
I-1
aI7
asVoutside
p3353
(lp3354
I-1
aI9
asVgoing
p3355
(lp3356
I-1
aI29
asVblack
p3357
(lp3358
I-1
aI9
asVequipped
p3359
(lp3360
I-1
aI7
asVServices
p3361
(lp3362
I-1
aI12
asVGMT
p3363
(lp3364
I-1
aI6
asVdispute
p3365
(lp3366
I-1
aI9
asVAssets
p3367
(lp3368
I-1
aI5
asVShearson
p3369
(lp3370
I-1
aI37
asVcontracts
p3371
(lp3372
I-1
aI50
asVassistant
p3373
(lp3374
I-1
aI3
asVtruly
p3375
(lp3376
I-1
aI3
asVhailed
p3377
(lp3378
I-1
aI3
asVProducts
p3379
(lp3380
I-1
aI11
asVnearly
p3381
(lp3382
I-1
aI16
asVdetermine
p3383
(lp3384
I-1
aI11
asVinformation
p3385
(lp3386
I-1
aI17
asVawaiting
p3387
(lp3388
I-1
aI4
asVIllinois
p3389
(lp3390
I-1
aI7
asVjustified
p3391
(lp3392
I-1
aI3
asVGrowth
p3393
(lp3394
I-1
aI3
asVprime
p3395
(lp3396
I-1
aI12
asVregarding
p3397
(lp3398
I-1
aI3
asVAlliance
p3399
(lp3400
I-1
aI7
asVCohn
p3401
(lp3402
I-1
aI4
asVconsist
p3403
(lp3404
I-1
aI4
asVDominion
p3405
(lp3406
I-1
aI3
asVMorbelli
p3407
(lp3408
I-1
aI3
asVyield
p3409
(lp3410
I-1
aI17
asVmorning
p3411
(lp3412
I-1
aI19
asVsum
p3413
(lp3414
I-1
aI8
asVmiles
p3415
(lp3416
I-1
aI7
asVpredicted
p3417
(lp3418
I-1
aI13
asVBenetton
p3419
(lp3420
I-1
aI6
asVdiscussing
p3421
(lp3422
I-1
aI5
asVworrying
p3423
(lp3424
I-1
aI3
asVCoastal
p3425
(lp3426
I-1
aI4
asVdeclared
p3427
(lp3428
I-1
aI20
asVBoeing
p3429
(lp3430
I-1
aI17
asVbids
p3431
(lp3432
I-1
aI5
asVcommitted
p3433
(lp3434
I-1
aI5
asVWPPSS
p3435
(lp3436
I-1
aI9
asVcomparable
p3437
(lp3438
I-1
aI5
asVseat
p3439
(lp3440
I-1
aI7
asVrelative
p3441
(lp3442
I-1
aI4
asVelected
p3443
(lp3444
I-1
aI6
asVactively
p3445
(lp3446
I-1
aI5
asVWhakatane
p3447
(lp3448
I-1
aI5
asVflatly
p3449
(lp3450
I-1
aI3
asVcalendar
p3451
(lp3452
I-1
aI45
asVconcern
p3453
(lp3454
I-1
aI11
asV833
p3455
(lp3456
I-1
aI4
asVretire
p3457
(lp3458
I-1
aI4
asVIowa
p3459
(lp3460
I-1
aI3
asVrumours
p3461
(lp3462
I-1
aI3
asVmortgage
p3463
(lp3464
I-1
aI11
asVThat
p3465
(lp3466
I-1
aI14
asVfederal
p3467
(lp3468
I-1
aI27
asVsubsequent
p3469
(lp3470
I-1
aI4
asVreview
p3471
(lp3472
I-1
aI29
asVopening
p3473
(lp3474
I-1
aI5
asVrepresentatives
p3475
(lp3476
I-1
aI15
asVforecast
p3477
(lp3478
I-1
aI50
asV3
p3479
(lp3480
I-1
aI305
asVLDP
p3481
(lp3482
I-1
aI7
asVbureau
p3483
(lp3484
I-1
aI4
asVJr
p3485
(lp3486
I-1
aI4
asVaffecting
p3487
(lp3488
I-1
aI4
asVimport
p3489
(lp3490
I-1
aI21
asVThai
p3491
(lp3492
I-1
aI7
asVMitsubishi
p3493
(lp3494
I-1
aI3
asVNPPC
p3495
(lp3496
I-1
aI3
asVnotice
p3497
(lp3498
I-1
aI3
asVjobs
p3499
(lp3500
I-1
aI10
asVJohnson
p3501
(lp3502
I-1
aI7
asVOats
p3503
(lp3504
I-1
aI5
asV33
p3505
(lp3506
I-1
aI17
asVAcquisition
p3507
(lp3508
I-1
aI9
asVflow
p3509
(lp3510
I-1
aI11
asVDemocrat
p3511
(lp3512
I-1
aI4
asVSecurities
p3513
(lp3514
I-1
aI60
asVoffices
p3515
(lp3516
I-1
aI6
asVFull
p3517
(lp3518
I-1
aI3
asVFOB
p3519
(lp3520
I-1
aI4
asVEach
p3521
(lp3522
I-1
aI4
asVjets
p3523
(lp3524
I-1
aI3
asV20
p3525
(lp3526
I-1
aI103
asVcities
p3527
(lp3528
I-1
aI7
asVcome
p3529
(lp3530
I-1
aI21
asV1987
p3531
(lp3532
I-1
aI181
asVundermine
p3533
(lp3534
I-1
aI6
asV785
p3535
(lp3536
I-1
aI3
asVinstallation
p3537
(lp3538
I-1
aI4
asVpests
p3539
(lp3540
I-1
aI3
asVtrader
p3541
(lp3542
I-1
aI8
asVtrades
p3543
(lp3544
I-1
aI7
asVaccording
p3545
(lp3546
I-1
aI35
asVcontract
p3547
(lp3548
I-1
aI60
asVcalled
p3549
(lp3550
I-1
aI44
asVdeduction
p3551
(lp3552
I-1
aI3
asVMalaysia
p3553
(lp3554
I-1
aI5
asVs
p3555
(lp3556
I-1
aI991
asVWhipple
p3557
(lp3558
I-1
aI3
asVreluctantly
p3559
(lp3560
I-1
aI3
asVsenator
p3561
(lp3562
I-1
aI4
asVholders
p3563
(lp3564
I-1
aI23
asVtraded
p3565
(lp3566
I-1
aI27
asVOffered
p3567
(lp3568
I-1
aI6
asVcomes
p3569
(lp3570
I-1
aI4
asVnearby
p3571
(lp3572
I-1
aI5
asVduty
p3573
(lp3574
I-1
aI10
asVnecessary
p3575
(lp3576
I-1
aI9
asVMortgage
p3577
(lp3578
I-1
aI6
asVpassenger
p3579
(lp3580
I-1
aI7
asVDelaware
p3581
(lp3582
I-1
aI3
asVcolony
p3583
(lp3584
I-1
aI3
asVSachs
p3585
(lp3586
I-1
aI5
asVexpectations
p3587
(lp3588
I-1
aI8
asVNote
p3589
(lp3590
I-1
aI7
asV61
p3591
(lp3592
I-1
aI18
asV62
p3593
(lp3594
I-1
aI9
asVgrants
p3595
(lp3596
I-1
aI3
asVanti
p3597
(lp3598
I-1
aI11
asVconfirm
p3599
(lp3600
I-1
aI3
asV66
p3601
(lp3602
I-1
aI12
asVHazleton
p3603
(lp3604
I-1
aI4
asV68
p3605
(lp3606
I-1
aI17
asVproved
p3607
(lp3608
I-1
aI4
asVpoll
p3609
(lp3610
I-1
aI16
asVconsidering
p3611
(lp3612
I-1
aI17
asVdestroyed
p3613
(lp3614
I-1
aI4
asVElectric
p3615
(lp3616
I-1
aI22
asVstripped
p3617
(lp3618
I-1
aI3
asVcertify
p3619
(lp3620
I-1
aI5
asVPaid
p3621
(lp3622
I-1
aI11
asVmark
p3623
(lp3624
I-1
aI11
asVTate
p3625
(lp3626
I-1
aI3
asVproduction
p3627
(lp3628
I-1
aI104
asVdeposited
p3629
(lp3630
I-1
aI3
asVLynch
p3631
(lp3632
I-1
aI20
asVNuclear
p3633
(lp3634
I-1
aI7
asV500
p3635
(lp3636
I-1
aI76
asVsystems
p3637
(lp3638
I-1
aI29
asVwants
p3639
(lp3640
I-1
aI19
asVBankAmerica
p3641
(lp3642
I-1
aI28
asVdirection
p3643
(lp3644
I-1
aI5
asVenable
p3645
(lp3646
I-1
aI7
asVtransportation
p3647
(lp3648
I-1
aI3
asVreaction
p3649
(lp3650
I-1
aI8
asVoffered
p3651
(lp3652
I-1
aI35
asVformed
p3653
(lp3654
I-1
aI13
asVexporting
p3655
(lp3656
I-1
aI3
asVlanguage
p3657
(lp3658
I-1
aI7
asVtightened
p3659
(lp3660
I-1
aI3
asVAnalysts
p3661
(lp3662
I-1
aI22
asVacquiring
p3663
(lp3664
I-1
aI3
asVBarbara
p3665
(lp3666
I-1
aI4
asVactions
p3667
(lp3668
I-1
aI10
asVOper
p3669
(lp3670
I-1
aI38
asVGoodrich
p3671
(lp3672
I-1
aI5
asVKenneth
p3673
(lp3674
I-1
aI4
asVdeveloping
p3675
(lp3676
I-1
aI7
asVDesjardins
p3677
(lp3678
I-1
aI3
asVReagan
p3679
(lp3680
I-1
aI61
asVsingle
p3681
(lp3682
I-1
aI17
asVNarjes
p3683
(lp3684
I-1
aI3
asVlire
p3685
(lp3686
I-1
aI5
asVpolicies
p3687
(lp3688
I-1
aI14
asVnewspaper
p3689
(lp3690
I-1
aI17
asVsituation
p3691
(lp3692
I-1
aI18
asVmargin
p3693
(lp3694
I-1
aI10
asVtaking
p3695
(lp3696
I-1
aI14
asVexercisable
p3697
(lp3698
I-1
aI5
asVoperate
p3699
(lp3700
I-1
aI12
asValuminium
p3701
(lp3702
I-1
aI9
asVindependent
p3703
(lp3704
I-1
aI10
asVeventually
p3705
(lp3706
I-1
aI4
asVToshin
p3707
(lp3708
I-1
aI3
asVsecondary
p3709
(lp3710
I-1
aI9
asVDonohue
p3711
(lp3712
I-1
aI5
asVtelephone
p3713
(lp3714
I-1
aI9
asVContraves
p3715
(lp3716
I-1
aI4
asVequal
p3717
(lp3718
I-1
aI19
asVrefinery
p3719
(lp3720
I-1
aI7
asVpressing
p3721
(lp3722
I-1
aI3
asVattributed
p3723
(lp3724
I-1
aI3
asVchairmen
p3725
(lp3726
I-1
aI5
asVLarry
p3727
(lp3728
I-1
aI3
asVactivity
p3729
(lp3730
I-1
aI18
asVtechnology
p3731
(lp3732
I-1
aI24
asVfloating
p3733
(lp3734
I-1
aI12
asVmovements
p3735
(lp3736
I-1
aI5
asVbags
p3737
(lp3738
I-1
aI16
asVexpenditures
p3739
(lp3740
I-1
aI8
asVmissiles
p3741
(lp3742
I-1
aI3
asVdevelop
p3743
(lp3744
I-1
aI8
asVindebtedness
p3745
(lp3746
I-1
aI4
asVpay
p3747
(lp3748
I-1
aI37
asVgranted
p3749
(lp3750
I-1
aI11
asVtour
p3751
(lp3752
I-1
aI4
asVTonka
p3753
(lp3754
I-1
aI3
asVdealer
p3755
(lp3756
I-1
aI11
asVcompiling
p3757
(lp3758
I-1
aI3
asVinquiry
p3759
(lp3760
I-1
aI6
asVWhen
p3761
(lp3762
I-1
aI5
asVweakness
p3763
(lp3764
I-1
aI9
asVCraxi
p3765
(lp3766
I-1
aI4
asVstatus
p3767
(lp3768
I-1
aI9
asVfinish
p3769
(lp3770
I-1
aI3
asVedged
p3771
(lp3772
I-1
aI3
asVCommodity
p3773
(lp3774
I-1
aI9
asVI
p3775
(lp3776
I-1
aI78
asVboosted
p3777
(lp3778
I-1
aI3
asVFunaro
p3779
(lp3780
I-1
aI58
asVII
p3781
(lp3782
I-1
aI14
asVpersons
p3783
(lp3784
I-1
aI3
asVdiversion
p3785
(lp3786
I-1
aI3
asVCenergy
p3787
(lp3788
I-1
aI5
asVBanks
p3789
(lp3790
I-1
aI18
asVchanging
p3791
(lp3792
I-1
aI6
asVIC
p3793
(lp3794
I-1
aI7
asVBay
p3795
(lp3796
I-1
aI5
asVtotally
p3797
(lp3798
I-1
aI4
asVreference
p3799
(lp3800
I-1
aI5
asVcomplained
p3801
(lp3802
I-1
aI4
asVPork
p3803
(lp3804
I-1
aI3
asVdrain
p3805
(lp3806
I-1
aI5
asVmember
p3807
(lp3808
I-1
aI24
asVlargely
p3809
(lp3810
I-1
aI6
asVcharges
p3811
(lp3812
I-1
aI8
asVIs
p3813
(lp3814
I-1
aI5
asVvacant
p3815
(lp3816
I-1
aI3
asVMotors
p3817
(lp3818
I-1
aI12
asVcustomized
p3819
(lp3820
I-1
aI10
asVInvestment
p3821
(lp3822
I-1
aI13
asVmortgages
p3823
(lp3824
I-1
aI3
asVauthoritative
p3825
(lp3826
I-1
aI3
asVsevere
p3827
(lp3828
I-1
aI6
asVcosts
p3829
(lp3830
I-1
aI40
asVcomponents
p3831
(lp3832
I-1
aI8
asV950
p3833
(lp3834
I-1
aI4
asVwholesale
p3835
(lp3836
I-1
aI8
asVeasing
p3837
(lp3838
I-1
aI3
asVmodel
p3839
(lp3840
I-1
aI6
asVbodies
p3841
(lp3842
I-1
aI3
asVcharged
p3843
(lp3844
I-1
aI10
asVgdp
p3845
(lp3846
I-1
aI3
asVsummer
p3847
(lp3848
I-1
aI10
asVUnited
p3849
(lp3850
I-1
aI56
asV210
p3851
(lp3852
I-1
aI3
asVmoney
p3853
(lp3854
I-1
aI66
asVadjustments
p3855
(lp3856
I-1
aI4
asVrest
p3857
(lp3858
I-1
aI8
asVDaniel
p3859
(lp3860
I-1
aI8
asVIMF
p3861
(lp3862
I-1
aI28
asVLiang
p3863
(lp3864
I-1
aI3
asVounces
p3865
(lp3866
I-1
aI7
asVtouch
p3867
(lp3868
I-1
aI3
asVMinstar
p3869
(lp3870
I-1
aI5
asVMarkets
p3871
(lp3872
I-1
aI11
asVweekly
p3873
(lp3874
I-1
aI15
asVSterling
p3875
(lp3876
I-1
aI4
asVProvidentia
p3877
(lp3878
I-1
aI3
asVrenewed
p3879
(lp3880
I-1
aI7
asVOccidental
p3881
(lp3882
I-1
aI6
asVrepresented
p3883
(lp3884
I-1
aI9
asVFDIC
p3885
(lp3886
I-1
aI5
asVrose
p3887
(lp3888
I-1
aI115
asVSpot
p3889
(lp3890
I-1
aI4
asVMac
p3891
(lp3892
I-1
aI14
asVimprovement
p3893
(lp3894
I-1
aI12
asVsetting
p3895
(lp3896
I-1
aI8
asVtreatment
p3897
(lp3898
I-1
aI8
asVAlthough
p3899
(lp3900
I-1
aI10
asVeye
p3901
(lp3902
I-1
aI5
asVMae
p3903
(lp3904
I-1
aI3
asVstruck
p3905
(lp3906
I-1
aI3
asVcompetitiveness
p3907
(lp3908
I-1
aI4
asVmomentum
p3909
(lp3910
I-1
aI3
asVreal
p3911
(lp3912
I-1
aI19
asVaspects
p3913
(lp3914
I-1
aI3
asVeasily
p3915
(lp3916
I-1
aI6
asVrules
p3917
(lp3918
I-1
aI15
asVIsland
p3919
(lp3920
I-1
aI6
asVDecember
p3921
(lp3922
I-1
aI155
asVCronus
p3923
(lp3924
I-1
aI3
asVperiod
p3925
(lp3926
I-1
aI66
asVearly
p3927
(lp3928
I-1
aI40
asVMicro
p3929
(lp3930
I-1
aI5
asVinflation
p3931
(lp3932
I-1
aI38
asVtraffic
p3933
(lp3934
I-1
aI5
asVworld
p3935
(lp3936
I-1
aI63
asVunderwriting
p3937
(lp3938
I-1
aI23
asVaccepted
p3939
(lp3940
I-1
aI9
asVdiv
p3941
(lp3942
I-1
aI7
asVengineers
p3943
(lp3944
I-1
aI3
asVruled
p3945
(lp3946
I-1
aI9
asV60
p3947
(lp3948
I-1
aI31
asVprompted
p3949
(lp3950
I-1
aI4
asVpounds
p3951
(lp3952
I-1
aI4
asVcollective
p3953
(lp3954
I-1
aI3
asVShare
p3955
(lp3956
I-1
aI3
asVrivals
p3957
(lp3958
I-1
aI3
asVannually
p3959
(lp3960
I-1
aI14
asVbenefit
p3961
(lp3962
I-1
aI12
asV63
p3963
(lp3964
I-1
aI14
asVLondon
p3965
(lp3966
I-1
aI36
asVt
p3967
(lp3968
I-1
aI42
asVFourtou
p3969
(lp3970
I-1
aI3
asVoutput
p3971
(lp3972
I-1
aI50
asVdilution
p3973
(lp3974
I-1
aI3
asVTA
p3975
(lp3976
I-1
aI3
asVreform
p3977
(lp3978
I-1
aI23
asVMatsushita
p3979
(lp3980
I-1
aI3
asVsharp
p3981
(lp3982
I-1
aI12
asVsatisfactory
p3983
(lp3984
I-1
aI5
asVEntertainment
p3985
(lp3986
I-1
aI8
asVTexaco
p3987
(lp3988
I-1
aI3
asVIndia
p3989
(lp3990
I-1
aI8
asV67
p3991
(lp3992
I-1
aI7
asVcompetition
p3993
(lp3994
I-1
aI8
asVMurgold
p3995
(lp3996
I-1
aI4
asVAB
p3997
(lp3998
I-1
aI9
asVPCGG
p3999
(lp4000
I-1
aI5
asVintend
p4001
(lp4002
I-1
aI6
asVNet
p4003
(lp4004
I-1
aI37
asVnarrowed
p4005
(lp4006
I-1
aI3
asVVDO
p4007
(lp4008
I-1
aI3
asVStearns
p4009
(lp4010
I-1
aI3
asVgross
p4011
(lp4012
I-1
aI8
asVHoliday
p4013
(lp4014
I-1
aI4
asVkwacha
p4015
(lp4016
I-1
aI3
asVGovernment
p4017
(lp4018
I-1
aI25
asVoperators
p4019
(lp4020
I-1
aI6
asVnoon
p4021
(lp4022
I-1
aI3
asVEarlier
p4023
(lp4024
I-1
aI7
asVrecorded
p4025
(lp4026
I-1
aI6
asVlegal
p4027
(lp4028
I-1
aI4
asVwithdrawn
p4029
(lp4030
I-1
aI3
asVvoice
p4031
(lp4032
I-1
aI3
asVcritical
p4033
(lp4034
I-1
aI7
asVexit
p4035
(lp4036
I-1
aI3
asVdeficit
p4037
(lp4038
I-1
aI47
asVprovides
p4039
(lp4040
I-1
aI11
asVallowing
p4041
(lp4042
I-1
aI6
asVmoderate
p4043
(lp4044
I-1
aI11
asV911
p4045
(lp4046
I-1
aI6
asVpayable
p4047
(lp4048
I-1
aI25
asVDaimler
p4049
(lp4050
I-1
aI5
asVmeasuring
p4051
(lp4052
I-1
aI5
asVfelt
p4053
(lp4054
I-1
aI4
asVassembly
p4055
(lp4056
I-1
aI6
asVCouncil
p4057
(lp4058
I-1
aI13
asVpower
p4059
(lp4060
I-1
aI31
asVTurbo
p4061
(lp4062
I-1
aI5
asVsixth
p4063
(lp4064
I-1
aI4
asVequivalent
p4065
(lp4066
I-1
aI6
asVTRE
p4067
(lp4068
I-1
aI10
asVbroker
p4069
(lp4070
I-1
aI13
asVcredits
p4071
(lp4072
I-1
aI15
asVleadership
p4073
(lp4074
I-1
aI3
asVOlin
p4075
(lp4076
I-1
aI3
asVresign
p4077
(lp4078
I-1
aI7
asVshrs
p4079
(lp4080
I-1
aI14
asVLacy
p4081
(lp4082
I-1
aI7
asVMontagu
p4083
(lp4084
I-1
aI5
asVHusky
p4085
(lp4086
I-1
aI7
asVprepared
p4087
(lp4088
I-1
aI13
asVcurrencies
p4089
(lp4090
I-1
aI9
asVmanufactures
p4091
(lp4092
I-1
aI7
asVmanufacturer
p4093
(lp4094
I-1
aI5
asVcomparison
p4095
(lp4096
I-1
aI7
asVsubdued
p4097
(lp4098
I-1
aI3
asVcentral
p4099
(lp4100
I-1
aI28
asVpackage
p4101
(lp4102
I-1
aI24
asVAgriculture
p4103
(lp4104
I-1
aI25
asVindustry
p4105
(lp4106
I-1
aI84
asVdiscussed
p4107
(lp4108
I-1
aI9
asVTrade
p4109
(lp4110
I-1
aI16
asVtremendous
p4111
(lp4112
I-1
aI3
asVPaper
p4113
(lp4114
I-1
aI3
asVairline
p4115
(lp4116
I-1
aI11
asVact
p4117
(lp4118
I-1
aI11
asVinvested
p4119
(lp4120
I-1
aI4
asVtariffs
p4121
(lp4122
I-1
aI5
asV376
p4123
(lp4124
I-1
aI3
asVparticipants
p4125
(lp4126
I-1
aI5
asVprovisional
p4127
(lp4128
I-1
aI6
asVroad
p4129
(lp4130
I-1
aI4
asVrapeseed
p4131
(lp4132
I-1
aI3
asVfreeing
p4133
(lp4134
I-1
aI3
asVoutlook
p4135
(lp4136
I-1
aI14
asVprotests
p4137
(lp4138
I-1
aI3
asVdecreased
p4139
(lp4140
I-1
aI3
asVNo
p4141
(lp4142
I-1
aI20
asVcoupon
p4143
(lp4144
I-1
aI36
asVinstruments
p4145
(lp4146
I-1
aI11
asVcopies
p4147
(lp4148
I-1
aI3
asVaccounts
p4149
(lp4150
I-1
aI11
asVBut
p4151
(lp4152
I-1
aI132
asVshipbuilding
p4153
(lp4154
I-1
aI3
asVparties
p4155
(lp4156
I-1
aI9
asVspeculated
p4157
(lp4158
I-1
aI6
asVtechnically
p4159
(lp4160
I-1
aI3
asVpharmaceutical
p4161
(lp4162
I-1
aI9
asVEvergo
p4163
(lp4164
I-1
aI12
asVarea
p4165
(lp4166
I-1
aI23
asVNA
p4167
(lp4168
I-1
aI3
asVHotel
p4169
(lp4170
I-1
aI7
asValleged
p4171
(lp4172
I-1
aI7
asVSabah
p4173
(lp4174
I-1
aI3
asVstart
p4175
(lp4176
I-1
aI23
asVTylan
p4177
(lp4178
I-1
aI3
asVlow
p4179
(lp4180
I-1
aI34
asVlot
p4181
(lp4182
I-1
aI8
asVdumping
p4183
(lp4184
I-1
aI4
asVstand
p4185
(lp4186
I-1
aI6
asVexceptional
p4187
(lp4188
I-1
aI3
asVNV
p4189
(lp4190
I-1
aI6
asVintends
p4191
(lp4192
I-1
aI3
asVPipeline
p4193
(lp4194
I-1
aI5
asVNZFE
p4195
(lp4196
I-1
aI4
asVcomplete
p4197
(lp4198
I-1
aI9
asVJ
p4199
(lp4200
I-1
aI17
asVdelayed
p4201
(lp4202
I-1
aI8
asVstrikes
p4203
(lp4204
I-1
aI5
asVcabinet
p4205
(lp4206
I-1
aI6
asVindicators
p4207
(lp4208
I-1
aI10
asVended
p4209
(lp4210
I-1
aI57
asVelimination
p4211
(lp4212
I-1
aI3
asVLight
p4213
(lp4214
I-1
aI4
asVtrying
p4215
(lp4216
I-1
aI15
asVbuying
p4217
(lp4218
I-1
aI28
asVfaster
p4219
(lp4220
I-1
aI10
asVcard
p4221
(lp4222
I-1
aI10
asVhire
p4223
(lp4224
I-1
aI3
asVfraud
p4225
(lp4226
I-1
aI4
asVarranged
p4227
(lp4228
I-1
aI5
asVcirculation
p4229
(lp4230
I-1
aI5
asVdefault
p4231
(lp4232
I-1
aI6
asVHouse
p4233
(lp4234
I-1
aI44
asVLong
p4235
(lp4236
I-1
aI7
asVSaito
p4237
(lp4238
I-1
aI4
asVJoseph
p4239
(lp4240
I-1
aI3
asVpolitically
p4241
(lp4242
I-1
aI3
asVagree
p4243
(lp4244
I-1
aI14
asVdetailed
p4245
(lp4246
I-1
aI4
asVgone
p4247
(lp4248
I-1
aI5
asVrequired
p4249
(lp4250
I-1
aI16
asV600
p4251
(lp4252
I-1
aI25
asVUSA
p4253
(lp4254
I-1
aI3
asVFarmers
p4255
(lp4256
I-1
aI3
asVdip
p4257
(lp4258
I-1
aI5
asVcertain
p4259
(lp4260
I-1
aI30
asVmoved
p4261
(lp4262
I-1
aI3
asV1200
p4263
(lp4264
I-1
aI3
asVThursday
p4265
(lp4266
I-1
aI25
asVgeneral
p4267
(lp4268
I-1
aI32
asVaftershocks
p4269
(lp4270
I-1
aI3
asVProduction
p4271
(lp4272
I-1
aI5
asVLast
p4273
(lp4274
I-1
aI24
asVfile
p4275
(lp4276
I-1
aI5
asVimporting
p4277
(lp4278
I-1
aI4
asVcontrolled
p4279
(lp4280
I-1
aI13
asVmoves
p4281
(lp4282
I-1
aI10
asVinspections
p4283
(lp4284
I-1
aI3
asVfilm
p4285
(lp4286
I-1
aI3
asVUSX
p4287
(lp4288
I-1
aI4
asVReal
p4289
(lp4290
I-1
aI5
asVNOTE
p4291
(lp4292
I-1
aI20
asVLai
p4293
(lp4294
I-1
aI6
asVpiracy
p4295
(lp4296
I-1
aI3
asVpersonnel
p4297
(lp4298
I-1
aI5
asVstorage
p4299
(lp4300
I-1
aI7
asVSecond
p4301
(lp4302
I-1
aI3
asVabolish
p4303
(lp4304
I-1
aI3
asVrubber
p4305
(lp4306
I-1
aI9
asVtight
p4307
(lp4308
I-1
aI5
asVTandem
p4309
(lp4310
I-1
aI4
asVAtlantic
p4311
(lp4312
I-1
aI3
asVLau
p4313
(lp4314
I-1
aI4
asVMore
p4315
(lp4316
I-1
aI7
asVsufficient
p4317
(lp4318
I-1
aI7
asVAsian
p4319
(lp4320
I-1
aI3
asVpoor
p4321
(lp4322
I-1
aI10
asVrequested
p4323
(lp4324
I-1
aI7
asVICI
p4325
(lp4326
I-1
aI16
asVICO
p4327
(lp4328
I-1
aI23
asV78
p4329
(lp4330
I-1
aI10
asVseparate
p4331
(lp4332
I-1
aI13
asVsymbol
p4333
(lp4334
I-1
aI3
asVreached
p4335
(lp4336
I-1
aI21
asVdisclosed
p4337
(lp4338
I-1
aI16
asVincludes
p4339
(lp4340
I-1
aI31
asVimportant
p4341
(lp4342
I-1
aI10
asVEstates
p4343
(lp4344
I-1
aI3
asVfailures
p4345
(lp4346
I-1
aI4
asVcasualties
p4347
(lp4348
I-1
aI3
asVfunding
p4349
(lp4350
I-1
aI3
asVbrass
p4351
(lp4352
I-1
aI3
asVstocks
p4353
(lp4354
I-1
aI32
asVpool
p4355
(lp4356
I-1
aI6
asVfiscal
p4357
(lp4358
I-1
aI36
asVassets
p4359
(lp4360
I-1
aI29
asVcalls
p4361
(lp4362
I-1
aI11
asVCredit
p4363
(lp4364
I-1
aI24
asVroasters
p4365
(lp4366
I-1
aI5
asVodds
p4367
(lp4368
I-1
aI3
asVExecutive
p4369
(lp4370
I-1
aI3
asVtelex
p4371
(lp4372
I-1
aI10
asVrepay
p4373
(lp4374
I-1
aI10
asVStreet
p4375
(lp4376
I-1
aI20
asVmass
p4377
(lp4378
I-1
aI3
asVprofits
p4379
(lp4380
I-1
aI34
asVSoybean
p4381
(lp4382
I-1
aI10
asVYear
p4383
(lp4384
I-1
aI19
asVshortfall
p4385
(lp4386
I-1
aI9
asVoverseas
p4387
(lp4388
I-1
aI8
asV12
p4389
(lp4390
I-1
aI91
asVstarting
p4391
(lp4392
I-1
aI19
asVoriginal
p4393
(lp4394
I-1
aI8
asVrefused
p4395
(lp4396
I-1
aI8
asVexternal
p4397
(lp4398
I-1
aI9
asVCanada
p4399
(lp4400
I-1
aI38
asVrepresent
p4401
(lp4402
I-1
aI5
asVconsider
p4403
(lp4404
I-1
aI15
asVcaused
p4405
(lp4406
I-1
aI17
asVWorkers
p4407
(lp4408
I-1
aI4
asVlack
p4409
(lp4410
I-1
aI8
asVJWT
p4411
(lp4412
I-1
aI4
asVmonth
p4413
(lp4414
I-1
aI127
asVdeadline
p4415
(lp4416
I-1
aI10
asVRobeson
p4417
(lp4418
I-1
aI4
asVShultz
p4419
(lp4420
I-1
aI16
asVsmoking
p4421
(lp4422
I-1
aI3
asVtalks
p4423
(lp4424
I-1
aI96
asVfollow
p4425
(lp4426
I-1
aI10
asVsettlement
p4427
(lp4428
I-1
aI8
asVdecisions
p4429
(lp4430
I-1
aI4
asVEST
p4431
(lp4432
I-1
aI8
asVreluctant
p4433
(lp4434
I-1
aI4
asVBrown
p4435
(lp4436
I-1
aI8
asVrights
p4437
(lp4438
I-1
aI25
asVreferring
p4439
(lp4440
I-1
aI5
asVpledged
p4441
(lp4442
I-1
aI3
asVlaid
p4443
(lp4444
I-1
aI4
asVopportunities
p4445
(lp4446
I-1
aI4
asVprogram
p4447
(lp4448
I-1
aI66
asVdairy
p4449
(lp4450
I-1
aI3
asVATPC
p4451
(lp4452
I-1
aI23
asVhealth
p4453
(lp4454
I-1
aI12
asVNAPM
p4455
(lp4456
I-1
aI11
asVpresentation
p4457
(lp4458
I-1
aI3
asVsound
p4459
(lp4460
I-1
aI4
asVJim
p4461
(lp4462
I-1
aI4
asVappointment
p4463
(lp4464
I-1
aI7
asVworse
p4465
(lp4466
I-1
aI4
asVfar
p4467
(lp4468
I-1
aI21
asVmulti
p4469
(lp4470
I-1
aI6
asVfat
p4471
(lp4472
I-1
aI7
asVresistance
p4473
(lp4474
I-1
aI4
asVradio
p4475
(lp4476
I-1
aI3
asVworst
p4477
(lp4478
I-1
aI7
asVdecide
p4479
(lp4480
I-1
aI8
asVsurprise
p4481
(lp4482
I-1
aI4
asVausterity
p4483
(lp4484
I-1
aI4
asVnewly
p4485
(lp4486
I-1
aI8
asVcondition
p4487
(lp4488
I-1
aI6
asVmotor
p4489
(lp4490
I-1
aI3
asVcable
p4491
(lp4492
I-1
aI5
asVKhalifa
p4493
(lp4494
I-1
aI4
asVstrategist
p4495
(lp4496
I-1
aI5
asVlist
p4497
(lp4498
I-1
aI9
asVjoined
p4499
(lp4500
I-1
aI4
asVbrewery
p4501
(lp4502
I-1
aI3
asVlarge
p4503
(lp4504
I-1
aI48
asVcircuit
p4505
(lp4506
I-1
aI4
asVsmall
p4507
(lp4508
I-1
aI24
asVeconomically
p4509
(lp4510
I-1
aI5
asVprogramme
p4511
(lp4512
I-1
aI6
asVowned
p4513
(lp4514
I-1
aI51
asV198
p4515
(lp4516
I-1
aI3
asV195
p4517
(lp4518
I-1
aI3
asVtea
p4519
(lp4520
I-1
aI7
asVstreets
p4521
(lp4522
I-1
aI3
asV191
p4523
(lp4524
I-1
aI3
asV190
p4525
(lp4526
I-1
aI4
asV193
p4527
(lp4528
I-1
aI4
asVcash
p4529
(lp4530
I-1
aI85
asVpast
p4531
(lp4532
I-1
aI37
asVGlaxo
p4533
(lp4534
I-1
aI3
asVnegotiator
p4535
(lp4536
I-1
aI4
asVdesign
p4537
(lp4538
I-1
aI9
asVenhancement
p4539
(lp4540
I-1
aI4
asVInterest
p4541
(lp4542
I-1
aI6
asVEast
p4543
(lp4544
I-1
aI3
asVinvestment
p4545
(lp4546
I-1
aI66
asVLatin
p4547
(lp4548
I-1
aI3
asVstood
p4549
(lp4550
I-1
aI4
asVcombined
p4551
(lp4552
I-1
aI27
asVconsumers
p4553
(lp4554
I-1
aI14
asVOpec
p4555
(lp4556
I-1
aI18
asVinvesting
p4557
(lp4558
I-1
aI3
asVdeeply
p4559
(lp4560
I-1
aI3
asVsection
p4561
(lp4562
I-1
aI3
asVParibas
p4563
(lp4564
I-1
aI4
asVbrief
p4565
(lp4566
I-1
aI6
asVcrush
p4567
(lp4568
I-1
aI8
asVpublic
p4569
(lp4570
I-1
aI52
asVversion
p4571
(lp4572
I-1
aI5
asVConservatives
p4573
(lp4574
I-1
aI8
asVcertificates
p4575
(lp4576
I-1
aI36
asVmethod
p4577
(lp4578
I-1
aI8
asVmovement
p4579
(lp4580
I-1
aI4
asVDodge
p4581
(lp4582
I-1
aI5
asVestate
p4583
(lp4584
I-1
aI9
asVWuerttemberg
p4585
(lp4586
I-1
aI3
asVK
p4587
(lp4588
I-1
aI40
asVdepreciation
p4589
(lp4590
I-1
aI8
asVmodify
p4591
(lp4592
I-1
aI3
asVhours
p4593
(lp4594
I-1
aI11
asVfavourable
p4595
(lp4596
I-1
aI4
asVred
p4597
(lp4598
I-1
aI6
asVinverse
p4599
(lp4600
I-1
aI6
asVoperating
p4601
(lp4602
I-1
aI41
asVexcess
p4603
(lp4604
I-1
aI13
asVtreasury
p4605
(lp4606
I-1
aI11
asVstrong
p4607
(lp4608
I-1
aI24
asVrespect
p4609
(lp4610
I-1
aI5
asVTaiwan
p4611
(lp4612
I-1
aI33
asVService
p4613
(lp4614
I-1
aI9
asV900
p4615
(lp4616
I-1
aI18
asVPepsiCo
p4617
(lp4618
I-1
aI4
asVahead
p4619
(lp4620
I-1
aI15
asVZurich
p4621
(lp4622
I-1
aI4
asV420
p4623
(lp4624
I-1
aI4
asVcompliance
p4625
(lp4626
I-1
aI3
asVallows
p4627
(lp4628
I-1
aI6
asVterminals
p4629
(lp4630
I-1
aI4
asVexperience
p4631
(lp4632
I-1
aI10
asVsignificantly
p4633
(lp4634
I-1
aI4
asVprior
p4635
(lp4636
I-1
aI17
asVairport
p4637
(lp4638
I-1
aI3
asVbase
p4639
(lp4640
I-1
aI25
asVbreakdown
p4641
(lp4642
I-1
aI4
asVpick
p4643
(lp4644
I-1
aI3
asVaction
p4645
(lp4646
I-1
aI19
asVformation
p4647
(lp4648
I-1
aI4
asVnarrow
p4649
(lp4650
I-1
aI6
asVAlcan
p4651
(lp4652
I-1
aI4
asVpoint
p4653
(lp4654
I-1
aI36
asVsticking
p4655
(lp4656
I-1
aI3
asVfollowed
p4657
(lp4658
I-1
aI11
asVmembers
p4659
(lp4660
I-1
aI51
asVAug
p4661
(lp4662
I-1
aI4
asVReform
p4663
(lp4664
I-1
aI3
asVrequiring
p4665
(lp4666
I-1
aI6
asVscreens
p4667
(lp4668
I-1
aI7
asVtendered
p4669
(lp4670
I-1
aI8
asVaimed
p4671
(lp4672
I-1
aI15
asVNigeria
p4673
(lp4674
I-1
aI15
asVStandard
p4675
(lp4676
I-1
aI21
asVestablish
p4677
(lp4678
I-1
aI3
asVfiles
p4679
(lp4680
I-1
aI3
asVreadily
p4681
(lp4682
I-1
aI3
asVEurope
p4683
(lp4684
I-1
aI29
asVenvironment
p4685
(lp4686
I-1
aI3
asVconventional
p4687
(lp4688
I-1
aI4
asV850
p4689
(lp4690
I-1
aI5
asVtakes
p4691
(lp4692
I-1
aI5
asVcontains
p4693
(lp4694
I-1
aI4
asVpetroleum
p4695
(lp4696
I-1
aI9
asVbbl
p4697
(lp4698
I-1
aI3
asVInvestments
p4699
(lp4700
I-1
aI8
asVFCA
p4701
(lp4702
I-1
aI8
asVCorp
p4703
(lp4704
I-1
aI264
asVtrip
p4705
(lp4706
I-1
aI6
asV6
p4707
(lp4708
I-1
aI194
asVtaken
p4709
(lp4710
I-1
aI22
asVEgypt
p4711
(lp4712
I-1
aI5
asVauthorization
p4713
(lp4714
I-1
aI3
asVsecured
p4715
(lp4716
I-1
aI6
asVSy
p4717
(lp4718
I-1
aI7
asVdoor
p4719
(lp4720
I-1
aI3
asVIntel
p4721
(lp4722
I-1
aI6
asVTobacco
p4723
(lp4724
I-1
aI4
asVEl
p4725
(lp4726
I-1
aI3
asVdivision
p4727
(lp4728
I-1
aI29
asVcompany
p4729
(lp4730
I-1
aI397
asVenormous
p4731
(lp4732
I-1
aI3
asVdramatic
p4733
(lp4734
I-1
aI5
asVSt
p4735
(lp4736
I-1
aI7
asVBanking
p4737
(lp4738
I-1
aI20
asVAmerican
p4739
(lp4740
I-1
aI116
asVstick
p4741
(lp4742
I-1
aI6
asVbroke
p4743
(lp4744
I-1
aI6
asVparticular
p4745
(lp4746
I-1
aI5
asVknown
p4747
(lp4748
I-1
aI14
asVbenefits
p4749
(lp4750
I-1
aI11
asVobjections
p4751
(lp4752
I-1
aI3
asVEuroclear
p4753
(lp4754
I-1
aI4
asVproducing
p4755
(lp4756
I-1
aI19
asVAtlanta
p4757
(lp4758
I-1
aI6
asVtown
p4759
(lp4760
I-1
aI3
asVhelped
p4761
(lp4762
I-1
aI6
asVkeeping
p4763
(lp4764
I-1
aI4
asVhour
p4765
(lp4766
I-1
aI7
asVdes
p4767
(lp4768
I-1
aI4
asVindustrialists
p4769
(lp4770
I-1
aI4
asVST
p4771
(lp4772
I-1
aI9
asVremain
p4773
(lp4774
I-1
aI30
asVarrangements
p4775
(lp4776
I-1
aI6
asVresources
p4777
(lp4778
I-1
aI4
asVSA
p4779
(lp4780
I-1
aI9
asVSE
p4781
(lp4782
I-1
aI11
asVInc
p4783
(lp4784
I-1
aI289
asVpurchases
p4785
(lp4786
I-1
aI14
asVCaspar
p4787
(lp4788
I-1
aI3
asVPaso
p4789
(lp4790
I-1
aI3
asV744
p4791
(lp4792
I-1
aI4
asVIBM
p4793
(lp4794
I-1
aI12
asVstated
p4795
(lp4796
I-1
aI3
asV48
p4797
(lp4798
I-1
aI14
asVfunctions
p4799
(lp4800
I-1
aI4
asVshare
p4801
(lp4802
I-1
aI195
asVaccept
p4803
(lp4804
I-1
aI16
asVstates
p4805
(lp4806
I-1
aI11
asVpushed
p4807
(lp4808
I-1
aI4
asVminimum
p4809
(lp4810
I-1
aI21
asVnumbers
p4811
(lp4812
I-1
aI4
asVpurchased
p4813
(lp4814
I-1
aI15
asVsense
p4815
(lp4816
I-1
aI3
asVCAC
p4817
(lp4818
I-1
aI5
asVexclude
p4819
(lp4820
I-1
aI3
asVCalif
p4821
(lp4822
I-1
aI8
asVUnilever
p4823
(lp4824
I-1
aI4
asVfirmly
p4825
(lp4826
I-1
aI3
asVhuge
p4827
(lp4828
I-1
aI10
asVneeds
p4829
(lp4830
I-1
aI18
asVParliament
p4831
(lp4832
I-1
aI3
asVcourt
p4833
(lp4834
I-1
aI7
asVFederation
p4835
(lp4836
I-1
aI7
asVsluggish
p4837
(lp4838
I-1
aI4
asVimminent
p4839
(lp4840
I-1
aI3
asVplans
p4841
(lp4842
I-1
aI72
asVarbitrageur
p4843
(lp4844
I-1
aI4
asVFalk
p4845
(lp4846
I-1
aI3
asVSales
p4847
(lp4848
I-1
aI15
asVEmbassy
p4849
(lp4850
I-1
aI15
asVstemming
p4851
(lp4852
I-1
aI5
asVearnings
p4853
(lp4854
I-1
aI60
asVreject
p4855
(lp4856
I-1
aI3
asVCaisse
p4857
(lp4858
I-1
aI8
asVtranches
p4859
(lp4860
I-1
aI4
asVHanover
p4861
(lp4862
I-1
aI3
asVplant
p4863
(lp4864
I-1
aI31
asVintended
p4865
(lp4866
I-1
aI15
asVExcelan
p4867
(lp4868
I-1
aI3
asVMarch
p4869
(lp4870
I-1
aI184
asV611
p4871
(lp4872
I-1
aI3
asVBankers
p4873
(lp4874
I-1
aI9
asVForeign
p4875
(lp4876
I-1
aI13
asVreflect
p4877
(lp4878
I-1
aI15
asVplane
p4879
(lp4880
I-1
aI4
asVEmirates
p4881
(lp4882
I-1
aI7
asVblood
p4883
(lp4884
I-1
aI3
asVcoming
p4885
(lp4886
I-1
aI13
asVSwiss
p4887
(lp4888
I-1
aI20
asVViacom
p4889
(lp4890
I-1
aI35
asVFerro
p4891
(lp4892
I-1
aI3
asVDow
p4893
(lp4894
I-1
aI10
asVacquisitions
p4895
(lp4896
I-1
aI22
asVthought
p4897
(lp4898
I-1
aI13
asVworkstation
p4899
(lp4900
I-1
aI4
asVshort
p4901
(lp4902
I-1
aI42
asVMexico
p4903
(lp4904
I-1
aI10
asVSweet
p4905
(lp4906
I-1
aI3
asVregister
p4907
(lp4908
I-1
aI3
asVovernight
p4909
(lp4910
I-1
aI6
asV995
p4911
(lp4912
I-1
aI4
asVcoal
p4913
(lp4914
I-1
aI5
asVJaime
p4915
(lp4916
I-1
aI7
asVDemocrats
p4917
(lp4918
I-1
aI7
asVMotor
p4919
(lp4920
I-1
aI10
asVbanks
p4921
(lp4922
I-1
aI172
asVMarathon
p4923
(lp4924
I-1
aI3
asVturnover
p4925
(lp4926
I-1
aI7
asVreplied
p4927
(lp4928
I-1
aI5
asVWhat
p4929
(lp4930
I-1
aI4
asVhelp
p4931
(lp4932
I-1
aI47
asVradios
p4933
(lp4934
I-1
aI3
asVdeveloped
p4935
(lp4936
I-1
aI9
asVsoon
p4937
(lp4938
I-1
aI18
asVdefinitive
p4939
(lp4940
I-1
aI6
asVtrade
p4941
(lp4942
I-1
aI115
asVheld
p4943
(lp4944
I-1
aI44
asVattitude
p4945
(lp4946
I-1
aI10
asVpaper
p4947
(lp4948
I-1
aI45
asVcommittee
p4949
(lp4950
I-1
aI59
asVsigns
p4951
(lp4952
I-1
aI8
asVsuffer
p4953
(lp4954
I-1
aI6
asVOct
p4955
(lp4956
I-1
aI5
asVTexas
p4957
(lp4958
I-1
aI22
asVfeatures
p4959
(lp4960
I-1
aI4
asV24
p4961
(lp4962
I-1
aI42
asV25
p4963
(lp4964
I-1
aI112
asV26
p4965
(lp4966
I-1
aI37
asV27
p4967
(lp4968
I-1
aI36
asVrapidly
p4969
(lp4970
I-1
aI6
asV21
p4971
(lp4972
I-1
aI25
asV22
p4973
(lp4974
I-1
aI37
asV23
p4975
(lp4976
I-1
aI33
asVSorghum
p4977
(lp4978
I-1
aI4
asVAzpurua
p4979
(lp4980
I-1
aI3
asV28
p4981
(lp4982
I-1
aI35
asV29
p4983
(lp4984
I-1
aI23
asVpct
p4985
(lp4986
I-1
aI886
asVseasonally
p4987
(lp4988
I-1
aI16
asVlate
p4989
(lp4990
I-1
aI34
asVparts
p4991
(lp4992
I-1
aI10
asVforints
p4993
(lp4994
I-1
aI9
asVJersey
p4995
(lp4996
I-1
aI5
asVNSPA
p4997
(lp4998
I-1
aI4
asVtravelling
p4999
(lp5000
I-1
aI4
asVgovernments
p5001
(lp5002
I-1
aI19
asVrumor
p5003
(lp5004
I-1
aI4
asVVersatile
p5005
(lp5006
I-1
aI7
asVMoody
p5007
(lp5008
I-1
aI9
asVwouldn
p5009
(lp5010
I-1
aI4
asVevening
p5011
(lp5012
I-1
aI3
asVreturn
p5013
(lp5014
I-1
aI22
asVseeking
p5015
(lp5016
I-1
aI19
asVfood
p5017
(lp5018
I-1
aI11
asVpropose
p5019
(lp5020
I-1
aI3
asVlargest
p5021
(lp5022
I-1
aI45
asVMichael
p5023
(lp5024
I-1
aI11
asVL
p5025
(lp5026
I-1
aI26
asVslight
p5027
(lp5028
I-1
aI3
asVanticipated
p5029
(lp5030
I-1
aI6
asVframework
p5031
(lp5032
I-1
aI3
asVconcluded
p5033
(lp5034
I-1
aI5
asVGSP
p5035
(lp5036
I-1
aI3
asVBandai
p5037
(lp5038
I-1
aI3
asVfoot
p5039
(lp5040
I-1
aI4
asVspeculate
p5041
(lp5042
I-1
aI3
asVassociation
p5043
(lp5044
I-1
aI5
asVgrowing
p5045
(lp5046
I-1
aI17
asVproducts
p5047
(lp5048
I-1
aI72
asVoccasions
p5049
(lp5050
I-1
aI3
asVlevel
p5051
(lp5052
I-1
aI29
asVsole
p5053
(lp5054
I-1
aI4
asVTelephone
p5055
(lp5056
I-1
aI9
asVstockmarkets
p5057
(lp5058
I-1
aI3
asVstopped
p5059
(lp5060
I-1
aI3
asVrepayment
p5061
(lp5062
I-1
aI8
asVMcDonnell
p5063
(lp5064
I-1
aI4
asVgazetted
p5065
(lp5066
I-1
aI4
asVports
p5067
(lp5068
I-1
aI4
asVheavy
p5069
(lp5070
I-1
aI10
asVsterling
p5071
(lp5072
I-1
aI11
asVcitizens
p5073
(lp5074
I-1
aI3
asVweight
p5075
(lp5076
I-1
aI7
asVproposals
p5077
(lp5078
I-1
aI26
asVenergy
p5079
(lp5080
I-1
aI12
asVhard
p5081
(lp5082
I-1
aI13
asVreduce
p5083
(lp5084
I-1
aI27
asVidea
p5085
(lp5086
I-1
aI4
asVslowdown
p5087
(lp5088
I-1
aI4
asVextended
p5089
(lp5090
I-1
aI17
asVexpect
p5091
(lp5092
I-1
aI20
asVcarry
p5093
(lp5094
I-1
aI19
asVoperation
p5095
(lp5096
I-1
aI19
asVthing
p5097
(lp5098
I-1
aI5
asVevent
p5099
(lp5100
I-1
aI3
asVreally
p5101
(lp5102
I-1
aI5
asVEngine
p5103
(lp5104
I-1
aI4
asVdeals
p5105
(lp5106
I-1
aI7
asVcreditor
p5107
(lp5108
I-1
aI24
asVjoin
p5109
(lp5110
I-1
aI3
asVGATT
p5111
(lp5112
I-1
aI14
asVcubic
p5113
(lp5114
I-1
aI3
asVprojected
p5115
(lp5116
I-1
aI27
asVresearch
p5117
(lp5118
I-1
aI18
asVacting
p5119
(lp5120
I-1
aI5
asVDefense
p5121
(lp5122
I-1
aI6
asVsafety
p5123
(lp5124
I-1
aI4
asV7
p5125
(lp5126
I-1
aI179
asVindexation
p5127
(lp5128
I-1
aI3
asV170
p5129
(lp5130
I-1
aI6
asVissue
p5131
(lp5132
I-1
aI110
asVClass
p5133
(lp5134
I-1
aI6
asVhighway
p5135
(lp5136
I-1
aI3
asVMario
p5137
(lp5138
I-1
aI5
asVSHV
p5139
(lp5140
I-1
aI4
asVAccording
p5141
(lp5142
I-1
aI6
asVEC
p5143
(lp5144
I-1
aI44
asVeffect
p5145
(lp5146
I-1
aI22
asVhouses
p5147
(lp5148
I-1
aI15
asVreason
p5149
(lp5150
I-1
aI11
asVMaude
p5151
(lp5152
I-1
aI3
asVincluded
p5153
(lp5154
I-1
aI15
asVQtly
p5155
(lp5156
I-1
aI4
asVask
p5157
(lp5158
I-1
aI6
asVChang
p5159
(lp5160
I-1
aI5
asVrises
p5161
(lp5162
I-1
aI11
asVbeginning
p5163
(lp5164
I-1
aI17
asVFidelity
p5165
(lp5166
I-1
aI3
asVdirector
p5167
(lp5168
I-1
aI29
asVowners
p5169
(lp5170
I-1
aI8
asVretained
p5171
(lp5172
I-1
aI3
asVAlgeria
p5173
(lp5174
I-1
aI4
asVEvans
p5175
(lp5176
I-1
aI6
asVlaunch
p5177
(lp5178
I-1
aI10
asVCongress
p5179
(lp5180
I-1
aI19
asVBoston
p5181
(lp5182
I-1
aI18
asVcomputers
p5183
(lp5184
I-1
aI20
asVrunning
p5185
(lp5186
I-1
aI11
asVround
p5187
(lp5188
I-1
aI6
asVconducted
p5189
(lp5190
I-1
aI7
asVafternoon
p5191
(lp5192
I-1
aI16
asVbusinessmen
p5193
(lp5194
I-1
aI3
asVthreat
p5195
(lp5196
I-1
aI4
asVscheduled
p5197
(lp5198
I-1
aI27
asVfallen
p5199
(lp5200
I-1
aI3
asVbushel
p5201
(lp5202
I-1
aI6
asVfeed
p5203
(lp5204
I-1
aI4
asVcopper
p5205
(lp5206
I-1
aI6
asVmajor
p5207
(lp5208
I-1
aI83
asVprotectionist
p5209
(lp5210
I-1
aI4
asVAirlines
p5211
(lp5212
I-1
aI17
asVnumber
p5213
(lp5214
I-1
aI29
asVfeet
p5215
(lp5216
I-1
aI10
asVenlarged
p5217
(lp5218
I-1
aI3
asVIndian
p5219
(lp5220
I-1
aI4
asVdefects
p5221
(lp5222
I-1
aI4
asVloadings
p5223
(lp5224
I-1
aI3
asVslower
p5225
(lp5226
I-1
aI4
asVwages
p5227
(lp5228
I-1
aI5
asVstory
p5229
(lp5230
I-1
aI5
asVheads
p5231
(lp5232
I-1
aI5
asVscathing
p5233
(lp5234
I-1
aI3
asVCourier
p5235
(lp5236
I-1
aI7
asVEnvironmental
p5237
(lp5238
I-1
aI3
asVintroduction
p5239
(lp5240
I-1
aI5
asVleading
p5241
(lp5242
I-1
aI25
asVfinanced
p5243
(lp5244
I-1
aI5
asVregulation
p5245
(lp5246
I-1
aI3
asVshilling
p5247
(lp5248
I-1
aI3
asV182
p5249
(lp5250
I-1
aI3
asVcontra
p5251
(lp5252
I-1
aI3
asV180
p5253
(lp5254
I-1
aI5
asVstation
p5255
(lp5256
I-1
aI3
asVstatement
p5257
(lp5258
I-1
aI77
asVDelta
p5259
(lp5260
I-1
aI9
asVRegulatory
p5261
(lp5262
I-1
aI4
asVton
p5263
(lp5264
I-1
aI8
asV188
p5265
(lp5266
I-1
aI5
asVscheme
p5267
(lp5268
I-1
aI10
asVRep
p5269
(lp5270
I-1
aI3
asVstore
p5271
(lp5272
I-1
aI3
asVlisted
p5273
(lp5274
I-1
aI22
asVmainstay
p5275
(lp5276
I-1
aI3
asVunemployment
p5277
(lp5278
I-1
aI29
asVselling
p5279
(lp5280
I-1
aI40
asVChemLawn
p5281
(lp5282
I-1
aI10
asVrelationship
p5283
(lp5284
I-1
aI7
asVFund
p5285
(lp5286
I-1
aI32
asVhotel
p5287
(lp5288
I-1
aI3
asVimmediate
p5289
(lp5290
I-1
aI10
asVappreciation
p5291
(lp5292
I-1
aI6
asVfavorable
p5293
(lp5294
I-1
aI4
asVbelieve
p5295
(lp5296
I-1
aI16
asVconvinced
p5297
(lp5298
I-1
aI3
asVpercentage
p5299
(lp5300
I-1
aI21
asVHutton
p5301
(lp5302
I-1
aI24
asVfinancing
p5303
(lp5304
I-1
aI46
asVgrew
p5305
(lp5306
I-1
aI10
asVwidened
p5307
(lp5308
I-1
aI3
asVdouble
p5309
(lp5310
I-1
aI12
asVKenosha
p5311
(lp5312
I-1
aI6
asVaims
p5313
(lp5314
I-1
aI4
asVdetermined
p5315
(lp5316
I-1
aI12
asVBanner
p5317
(lp5318
I-1
aI8
asVrisks
p5319
(lp5320
I-1
aI7
asVMonsod
p5321
(lp5322
I-1
aI15
asVBurlington
p5323
(lp5324
I-1
aI3
asVlease
p5325
(lp5326
I-1
aI8
asVtreated
p5327
(lp5328
I-1
aI3
asVinteractive
p5329
(lp5330
I-1
aI3
asVAffairs
p5331
(lp5332
I-1
aI8
asV880
p5333
(lp5334
I-1
aI3
asVoutstanding
p5335
(lp5336
I-1
aI43
asVimports
p5337
(lp5338
I-1
aI61
asVPoulenc
p5339
(lp5340
I-1
aI3
asVbusinesses
p5341
(lp5342
I-1
aI19
asVDouglas
p5343
(lp5344
I-1
aI9
asVroughly
p5345
(lp5346
I-1
aI5
asVdirect
p5347
(lp5348
I-1
aI11
asVsubstantial
p5349
(lp5350
I-1
aI11
asVMcKiernan
p5351
(lp5352
I-1
aI3
asVEquity
p5353
(lp5354
I-1
aI9
asVColoroll
p5355
(lp5356
I-1
aI3
asVPenn
p5357
(lp5358
I-1
aI5
asVPenser
p5359
(lp5360
I-1
aI3
asVorders
p5361
(lp5362
I-1
aI40
asVoption
p5363
(lp5364
I-1
aI24
asVsell
p5365
(lp5366
I-1
aI55
asVratings
p5367
(lp5368
I-1
aI5
asVbuilt
p5369
(lp5370
I-1
aI10
asVzero
p5371
(lp5372
I-1
aI8
asVdepending
p5373
(lp5374
I-1
aI11
asVFood
p5375
(lp5376
I-1
aI8
asVIceland
p5377
(lp5378
I-1
aI3
asVself
p5379
(lp5380
I-1
aI8
asVVirginia
p5381
(lp5382
I-1
aI3
asVport
p5383
(lp5384
I-1
aI12
asVArab
p5385
(lp5386
I-1
aI10
asVmajority
p5387
(lp5388
I-1
aI14
asVinternal
p5389
(lp5390
I-1
aI12
asVGermany
p5391
(lp5392
I-1
aI22
asVbuild
p5393
(lp5394
I-1
aI13
asVfinding
p5395
(lp5396
I-1
aI4
asVWith
p5397
(lp5398
I-1
aI12
asVprovince
p5399
(lp5400
I-1
aI3
asVplay
p5401
(lp5402
I-1
aI6
asVexperienced
p5403
(lp5404
I-1
aI3
asVJames
p5405
(lp5406
I-1
aI8
asVQabas
p5407
(lp5408
I-1
aI3
asVapproves
p5409
(lp5410
I-1
aI3
asVsets
p5411
(lp5412
I-1
aI3
asVM
p5413
(lp5414
I-1
aI23
asVquota
p5415
(lp5416
I-1
aI46
asVGovernor
p5417
(lp5418
I-1
aI7
asV77
p5419
(lp5420
I-1
aI10
asV76
p5421
(lp5422
I-1
aI10
asVChief
p5423
(lp5424
I-1
aI11
asV74
p5425
(lp5426
I-1
aI6
asVGrain
p5427
(lp5428
I-1
aI6
asVplan
p5429
(lp5430
I-1
aI66
asVsignificant
p5431
(lp5432
I-1
aI22
asV07
p5433
(lp5434
I-1
aI5
asVgilt
p5435
(lp5436
I-1
aI6
asVThe
p5437
(lp5438
I-1
aI1182
asVextremely
p5439
(lp5440
I-1
aI5
asVapproved
p5441
(lp5442
I-1
aI37
asV79
p5443
(lp5444
I-1
aI9
asVstands
p5445
(lp5446
I-1
aI4
asVdemand
p5447
(lp5448
I-1
aI64
asV65
p5449
(lp5450
I-1
aI24
asVdealers
p5451
(lp5452
I-1
aI32
asVIEL
p5453
(lp5454
I-1
aI12
asVseize
p5455
(lp5456
I-1
aI3
asVShiratori
p5457
(lp5458
I-1
aI4
asVclear
p5459
(lp5460
I-1
aI18
asVpopularity
p5461
(lp5462
I-1
aI5
asVcover
p5463
(lp5464
I-1
aI15
asVdevalue
p5465
(lp5466
I-1
aI3
asVtraditional
p5467
(lp5468
I-1
aI9
asVconcessions
p5469
(lp5470
I-1
aI6
asVLouis
p5471
(lp5472
I-1
aI5
asVringgit
p5473
(lp5474
I-1
aI8
asVbarrel
p5475
(lp5476
I-1
aI18
asVlatest
p5477
(lp5478
I-1
aI27
asVReynolds
p5479
(lp5480
I-1
aI8
asVinstitutions
p5481
(lp5482
I-1
aI24
asVlying
p5483
(lp5484
I-1
aI3
asVjoining
p5485
(lp5486
I-1
aI5
asVsector
p5487
(lp5488
I-1
aI55
asVcontracted
p5489
(lp5490
I-1
aI3
asVparticularly
p5491
(lp5492
I-1
aI19
asVgold
p5493
(lp5494
I-1
aI22
asV217
p5495
(lp5496
I-1
aI3
asVobligations
p5497
(lp5498
I-1
aI14
asVmemorandum
p5499
(lp5500
I-1
aI3
asV265
p5501
(lp5502
I-1
aI3
asVAmgen
p5503
(lp5504
I-1
aI3
asVsession
p5505
(lp5506
I-1
aI11
asVPenril
p5507
(lp5508
I-1
aI3
asVAlan
p5509
(lp5510
I-1
aI4
asVfreight
p5511
(lp5512
I-1
aI4
asVmultilateral
p5513
(lp5514
I-1
aI4
asVstores
p5515
(lp5516
I-1
aI13
asVKeating
p5517
(lp5518
I-1
aI7
asVfine
p5519
(lp5520
I-1
aI5
asV75
p5521
(lp5522
I-1
aI39
asVBA
p5523
(lp5524
I-1
aI7
asVimpact
p5525
(lp5526
I-1
aI16
asVExports
p5527
(lp5528
I-1
aI9
asVBass
p5529
(lp5530
I-1
aI7
asVnorthern
p5531
(lp5532
I-1
aI5
asVCoordination
p5533
(lp5534
I-1
aI3
asVmerger
p5535
(lp5536
I-1
aI27
asVDauster
p5537
(lp5538
I-1
aI3
asVVentana
p5539
(lp5540
I-1
aI3
asVstockholders
p5541
(lp5542
I-1
aI5
asVwaiting
p5543
(lp5544
I-1
aI6
asVFrench
p5545
(lp5546
I-1
aI29
asVfailed
p5547
(lp5548
I-1
aI22
asVflights
p5549
(lp5550
I-1
aI8
asVTraffic
p5551
(lp5552
I-1
aI6
asVsurveyed
p5553
(lp5554
I-1
aI6
asVstability
p5555
(lp5556
I-1
aI9
asVequity
p5557
(lp5558
I-1
aI31
asVencouraged
p5559
(lp5560
I-1
aI3
asVGros
p5561
(lp5562
I-1
aI9
asVrenegotiate
p5563
(lp5564
I-1
aI4
asVinsurance
p5565
(lp5566
I-1
aI16
asVNaylor
p5567
(lp5568
I-1
aI4
asVBased
p5569
(lp5570
I-1
aI4
asVPrime
p5571
(lp5572
I-1
aI29
asVexecutive
p5573
(lp5574
I-1
aI39
asVhit
p5575
(lp5576
I-1
aI13
asVgains
p5577
(lp5578
I-1
aI23
asVpermission
p5579
(lp5580
I-1
aI3
asVliquid
p5581
(lp5582
I-1
aI3
asVcapital
p5583
(lp5584
I-1
aI71
asVdry
p5585
(lp5586
I-1
aI5
asVIAC
p5587
(lp5588
I-1
aI4
asVWhile
p5589
(lp5590
I-1
aI8
asVstg
p5591
(lp5592
I-1
aI59
asVpreparing
p5593
(lp5594
I-1
aI4
asVclosely
p5595
(lp5596
I-1
aI12
asVreporters
p5597
(lp5598
I-1
aI30
asVbilateral
p5599
(lp5600
I-1
aI8
asV69
p5601
(lp5602
I-1
aI12
asVresolve
p5603
(lp5604
I-1
aI4
asVdoubled
p5605
(lp5606
I-1
aI4
asVcoupons
p5607
(lp5608
I-1
aI4
asVbanking
p5609
(lp5610
I-1
aI42
asVinterim
p5611
(lp5612
I-1
aI3
asVcommon
p5613
(lp5614
I-1
aI93
asVrecommendations
p5615
(lp5616
I-1
aI7
asVTabak
p5617
(lp5618
I-1
aI3
asVriver
p5619
(lp5620
I-1
aI4
asVBombay
p5621
(lp5622
I-1
aI3
asVset
p5623
(lp5624
I-1
aI64
asVgrain
p5625
(lp5626
I-1
aI18
asVFor
p5627
(lp5628
I-1
aI28
asVachieved
p5629
(lp5630
I-1
aI5
asVintelligence
p5631
(lp5632
I-1
aI3
asVRospatch
p5633
(lp5634
I-1
aI12
asVseats
p5635
(lp5636
I-1
aI5
asV316
p5637
(lp5638
I-1
aI3
asVFrance
p5639
(lp5640
I-1
aI20
asVWright
p5641
(lp5642
I-1
aI3
asVindividual
p5643
(lp5644
I-1
aI8
asVriyal
p5645
(lp5646
I-1
aI5
asVtender
p5647
(lp5648
I-1
aI38
asVclose
p5649
(lp5650
I-1
aI44
asVNeither
p5651
(lp5652
I-1
aI5
asVarm
p5653
(lp5654
I-1
aI5
asVconsidered
p5655
(lp5656
I-1
aI14
asVregulator
p5657
(lp5658
I-1
aI3
asVSubroto
p5659
(lp5660
I-1
aI5
asVcrushing
p5661
(lp5662
I-1
aI5
asVvisiting
p5663
(lp5664
I-1
aI4
asVspeed
p5665
(lp5666
I-1
aI8
asVuser
p5667
(lp5668
I-1
aI3
asVcurrently
p5669
(lp5670
I-1
aI35
asVdiluted
p5671
(lp5672
I-1
aI3
asVcase
p5673
(lp5674
I-1
aI17
asVunions
p5675
(lp5676
I-1
aI6
asVOfficials
p5677
(lp5678
I-1
aI10
asVPlc
p5679
(lp5680
I-1
aI26
asVtranche
p5681
(lp5682
I-1
aI8
asVRealty
p5683
(lp5684
I-1
aI5
asVSony
p5685
(lp5686
I-1
aI5
asVconditions
p5687
(lp5688
I-1
aI27
asVfavor
p5689
(lp5690
I-1
aI5
asVwide
p5691
(lp5692
I-1
aI5
asVavailable
p5693
(lp5694
I-1
aI56
asVrecently
p5695
(lp5696
I-1
aI17
asVcreating
p5697
(lp5698
I-1
aI3
asVTeles
p5699
(lp5700
I-1
aI3
asVannouncement
p5701
(lp5702
I-1
aI10
asVtargeted
p5703
(lp5704
I-1
aI4
asVdividends
p5705
(lp5706
I-1
aI9
asVfranchises
p5707
(lp5708
I-1
aI5
asVattention
p5709
(lp5710
I-1
aI4
asVFlorida
p5711
(lp5712
I-1
aI3
asVdeliberately
p5713
(lp5714
I-1
aI3
asVCity
p5715
(lp5716
I-1
aI6
asVaircraft
p5717
(lp5718
I-1
aI22
asVsucceed
p5719
(lp5720
I-1
aI7
asVimporters
p5721
(lp5722
I-1
aI3
asVopposition
p5723
(lp5724
I-1
aI14
asVAfrican
p5725
(lp5726
I-1
aI4
asVdividend
p5727
(lp5728
I-1
aI40
asVIonic
p5729
(lp5730
I-1
aI3
asVprospects
p5731
(lp5732
I-1
aI17
asVimproved
p5733
(lp5734
I-1
aI17
asVlicense
p5735
(lp5736
I-1
aI4
asVGreek
p5737
(lp5738
I-1
aI7
asVannual
p5739
(lp5740
I-1
aI64
asVVMS
p5741
(lp5742
I-1
aI3
asVNigerian
p5743
(lp5744
I-1
aI5
asVconnection
p5745
(lp5746
I-1
aI9
asVGalaxy
p5747
(lp5748
I-1
aI7
asVcontext
p5749
(lp5750
I-1
aI3
asVfocused
p5751
(lp5752
I-1
aI4
asVmean
p5753
(lp5754
I-1
aI7
asVapprove
p5755
(lp5756
I-1
aI7
asVload
p5757
(lp5758
I-1
aI6
asVFriday
p5759
(lp5760
I-1
aI41
asVTurkish
p5761
(lp5762
I-1
aI3
asVreasons
p5763
(lp5764
I-1
aI4
asVloan
p5765
(lp5766
I-1
aI50
asVEnglish
p5767
(lp5768
I-1
aI8
asVcommunity
p5769
(lp5770
I-1
aI5
asVNobel
p5771
(lp5772
I-1
aI6
asVagents
p5773
(lp5774
I-1
aI3
asVvessel
p5775
(lp5776
I-1
aI4
asVDiagnostic
p5777
(lp5778
I-1
aI10
asVWar
p5779
(lp5780
I-1
aI4
asVexpensive
p5781
(lp5782
I-1
aI7
asVplatinum
p5783
(lp5784
I-1
aI5
asVdecline
p5785
(lp5786
I-1
aI37
asVdescribed
p5787
(lp5788
I-1
aI4
asVBrothers
p5789
(lp5790
I-1
aI12
asVmonthly
p5791
(lp5792
I-1
aI20
asVpolitical
p5793
(lp5794
I-1
aI26
asVstrategy
p5795
(lp5796
I-1
aI8
asVconvicted
p5797
(lp5798
I-1
aI3
asVMost
p5799
(lp5800
I-1
aI8
asVsecret
p5801
(lp5802
I-1
aI3
asVoptions
p5803
(lp5804
I-1
aI22
asVCalifornia
p5805
(lp5806
I-1
aI9
asVmaintenance
p5807
(lp5808
I-1
aI5
asVwait
p5809
(lp5810
I-1
aI5
asVMack
p5811
(lp5812
I-1
aI5
asV4
p5813
(lp5814
I-1
aI263
asVfirm
p5815
(lp5816
I-1
aI65
asVlived
p5817
(lp5818
I-1
aI3
asVrepayments
p5819
(lp5820
I-1
aI17
asVpassengers
p5821
(lp5822
I-1
aI3
asVgas
p5823
(lp5824
I-1
aI26
asVconvert
p5825
(lp5826
I-1
aI5
asVN
p5827
(lp5828
I-1
aI33
asVfund
p5829
(lp5830
I-1
aI20
asVAquino
p5831
(lp5832
I-1
aI5
asVSaudi
p5833
(lp5834
I-1
aI28
asVbidding
p5835
(lp5836
I-1
aI5
asVquarterly
p5837
(lp5838
I-1
aI17
asVprices
p5839
(lp5840
I-1
aI184
asVdespite
p5841
(lp5842
I-1
aI10
asVdenominated
p5843
(lp5844
I-1
aI6
asVMichel
p5845
(lp5846
I-1
aI6
asVSoftware
p5847
(lp5848
I-1
aI4
asVpact
p5849
(lp5850
I-1
aI20
asVhandling
p5851
(lp5852
I-1
aI7
asVuncertain
p5853
(lp5854
I-1
aI4
asVlook
p5855
(lp5856
I-1
aI4
asVRolls
p5857
(lp5858
I-1
aI4
asVtalking
p5859
(lp5860
I-1
aI7
asVindefinitely
p5861
(lp5862
I-1
aI3
asV285
p5863
(lp5864
I-1
aI4
asVreliable
p5865
(lp5866
I-1
aI3
asVexpanded
p5867
(lp5868
I-1
aI6
asVmln
p5869
(lp5870
I-1
aI953
asVbudget
p5871
(lp5872
I-1
aI63
asVearthquakes
p5873
(lp5874
I-1
aI5
asVtechnical
p5875
(lp5876
I-1
aI3
asVreplaced
p5877
(lp5878
I-1
aI6
asVIntelligence
p5879
(lp5880
I-1
aI4
asVfleet
p5881
(lp5882
I-1
aI7
asVderegulation
p5883
(lp5884
I-1
aI11
asV31
p5885
(lp5886
I-1
aI85
asVMarket
p5887
(lp5888
I-1
aI11
asVHotels
p5889
(lp5890
I-1
aI14
asVIndustries
p5891
(lp5892
I-1
aI29
asVowed
p5893
(lp5894
I-1
aI8
asVQatar
p5895
(lp5896
I-1
aI11
asVpound
p5897
(lp5898
I-1
aI3
asVItaly
p5899
(lp5900
I-1
aI23
asVSumitomo
p5901
(lp5902
I-1
aI7
asVemployees
p5903
(lp5904
I-1
aI16
asVcommenting
p5905
(lp5906
I-1
aI3
asVbacking
p5907
(lp5908
I-1
aI4
asVaveraging
p5909
(lp5910
I-1
aI5
asVstations
p5911
(lp5912
I-1
aI4
asVorigin
p5913
(lp5914
I-1
aI3
asVTin
p5915
(lp5916
I-1
aI4
asVitself
p5917
(lp5918
I-1
aI13
asVowes
p5919
(lp5920
I-1
aI5
asVready
p5921
(lp5922
I-1
aI5
asV34
p5923
(lp5924
I-1
aI21
asVEaster
p5925
(lp5926
I-1
aI4
asVStock
p5927
(lp5928
I-1
aI20
asVMetal
p5929
(lp5930
I-1
aI6
asVunderwriters
p5931
(lp5932
I-1
aI9
asVgrant
p5933
(lp5934
I-1
aI7
asVPenney
p5935
(lp5936
I-1
aI4
asVproblems
p5937
(lp5938
I-1
aI23
asV870
p5939
(lp5940
I-1
aI3
asVtextile
p5941
(lp5942
I-1
aI10
asVvirtually
p5943
(lp5944
I-1
aI5
asVwidely
p5945
(lp5946
I-1
aI9
asVMany
p5947
(lp5948
I-1
aI9
asV9
p5949
(lp5950
I-1
aI136
asVresulting
p5951
(lp5952
I-1
aI3
asVrelatively
p5953
(lp5954
I-1
aI14
asVconflict
p5955
(lp5956
I-1
aI3
asVhigher
p5957
(lp5958
I-1
aI52
asVMMCs
p5959
(lp5960
I-1
aI4
asVFaith
p5961
(lp5962
I-1
aI5
asVAbout
p5963
(lp5964
I-1
aI4
asVused
p5965
(lp5966
I-1
aI52
asVtemporary
p5967
(lp5968
I-1
aI8
asVCBT
p5969
(lp5970
I-1
aI3
asVbonus
p5971
(lp5972
I-1
aI12
asVrestraint
p5973
(lp5974
I-1
aI4
asVIll
p5975
(lp5976
I-1
aI4
asVLines
p5977
(lp5978
I-1
aI9
asVyesterday
p5979
(lp5980
I-1
aI52
asVflows
p5981
(lp5982
I-1
aI3
asVsteps
p5983
(lp5984
I-1
aI7
asVRetrieval
p5985
(lp5986
I-1
aI6
asVlevels
p5987
(lp5988
I-1
aI28
asVuses
p5989
(lp5990
I-1
aI4
asVPublications
p5991
(lp5992
I-1
aI4
asVnecessity
p5993
(lp5994
I-1
aI3
asVaggregate
p5995
(lp5996
I-1
aI3
asV80
p5997
(lp5998
I-1
aI35
asVrecent
p5999
(lp6000
I-1
aI61
asVLimited
p6001
(lp6002
I-1
aI3
asVlower
p6003
(lp6004
I-1
aI36
asVHoechst
p6005
(lp6006
I-1
aI4
asVguarantee
p6007
(lp6008
I-1
aI7
asVMiller
p6009
(lp6010
I-1
aI7
asVspent
p6011
(lp6012
I-1
aI6
asVProceeds
p6013
(lp6014
I-1
aI6
asVperson
p6015
(lp6016
I-1
aI3
asVRate
p6017
(lp6018
I-1
aI3
asVEconomic
p6019
(lp6020
I-1
aI16
asVservices
p6021
(lp6022
I-1
aI36
asVmachinery
p6023
(lp6024
I-1
aI5
asVwithdraw
p6025
(lp6026
I-1
aI3
asV1965
p6027
(lp6028
I-1
aI3
asVTalks
p6029
(lp6030
I-1
aI5
asVentry
p6031
(lp6032
I-1
aI5
asVsignalled
p6033
(lp6034
I-1
aI3
asVPrice
p6035
(lp6036
I-1
aI8
asVknow
p6037
(lp6038
I-1
aI5
asVpassed
p6039
(lp6040
I-1
aI3
asV768
p6041
(lp6042
I-1
aI3
asVExchequer
p6043
(lp6044
I-1
aI7
asVpolled
p6045
(lp6046
I-1
aI5
asVPorsche
p6047
(lp6048
I-1
aI4
asV767
p6049
(lp6050
I-1
aI3
asV4th
p6051
(lp6052
I-1
aI6
asVCCR
p6053
(lp6054
I-1
aI3
asVBoren
p6055
(lp6056
I-1
aI6
asVusing
p6057
(lp6058
I-1
aI14
asValternative
p6059
(lp6060
I-1
aI25
asVCCC
p6061
(lp6062
I-1
aI4
asVdiscipline
p6063
(lp6064
I-1
aI4
asVretirement
p6065
(lp6066
I-1
aI5
asVinformal
p6067
(lp6068
I-1
aI7
asVadvisers
p6069
(lp6070
I-1
aI4
asVworkers
p6071
(lp6072
I-1
aI29
asVdeputy
p6073
(lp6074
I-1
aI8
asVguaranteed
p6075
(lp6076
I-1
aI19
asVOakleaf
p6077
(lp6078
I-1
aI3
asVmakers
p6079
(lp6080
I-1
aI12
asVsource
p6081
(lp6082
I-1
aI11
asVlabour
p6083
(lp6084
I-1
aI7
asVBancshares
p6085
(lp6086
I-1
aI4
asVlocation
p6087
(lp6088
I-1
aI5
asVtabled
p6089
(lp6090
I-1
aI3
asVwin
p6091
(lp6092
I-1
aI6
asVDrexel
p6093
(lp6094
I-1
aI6
asVviolations
p6095
(lp6096
I-1
aI6
asVguarantees
p6097
(lp6098
I-1
aI3
asVadministrative
p6099
(lp6100
I-1
aI6
asVremaining
p6101
(lp6102
I-1
aI21
asVchairman
p6103
(lp6104
I-1
aI68
asVassociations
p6105
(lp6106
I-1
aI3
asVOn
p6107
(lp6108
I-1
aI15
asVcomplaint
p6109
(lp6110
I-1
aI6
asVmarch
p6111
(lp6112
I-1
aI3
asVThey
p6113
(lp6114
I-1
aI67
asVemergency
p6115
(lp6116
I-1
aI14
asVdemands
p6117
(lp6118
I-1
aI11
asVOf
p6119
(lp6120
I-1
aI5
asVcouple
p6121
(lp6122
I-1
aI3
asVSuisse
p6123
(lp6124
I-1
aI3
asVAir
p6125
(lp6126
I-1
aI18
asVjudgement
p6127
(lp6128
I-1
aI3
asVgame
p6129
(lp6130
I-1
aI3
asVBrierley
p6131
(lp6132
I-1
aI3
asVdamage
p6133
(lp6134
I-1
aI5
asVbit
p6135
(lp6136
I-1
aI9
asVtire
p6137
(lp6138
I-1
aI3
asVprojects
p6139
(lp6140
I-1
aI5
asVformal
p6141
(lp6142
I-1
aI9
asVPakistan
p6143
(lp6144
I-1
aI6
asVoutright
p6145
(lp6146
I-1
aI4
asVCarbide
p6147
(lp6148
I-1
aI4
asVimposed
p6149
(lp6150
I-1
aI8
asVd
p6151
(lp6152
I-1
aI6
asVsemi
p6153
(lp6154
I-1
aI7
asVPreviously
p6155
(lp6156
I-1
aI4
asVfollows
p6157
(lp6158
I-1
aI12
asVsignal
p6159
(lp6160
I-1
aI4
asVcapitals
p6161
(lp6162
I-1
aI3
asVassociate
p6163
(lp6164
I-1
aI3
asVcontinue
p6165
(lp6166
I-1
aI51
asVyields
p6167
(lp6168
I-1
aI3
asVregion
p6169
(lp6170
I-1
aI10
asVrefineries
p6171
(lp6172
I-1
aI5
asVsuppliers
p6173
(lp6174
I-1
aI3
asV8ths
p6175
(lp6176
I-1
aI3
asVmethods
p6177
(lp6178
I-1
aI3
asVGulf
p6179
(lp6180
I-1
aI40
asVGuinness
p6181
(lp6182
I-1
aI4
asVspring
p6183
(lp6184
I-1
aI4
asVunderstood
p6185
(lp6186
I-1
aI4
asVstrongest
p6187
(lp6188
I-1
aI3
asVeconomic
p6189
(lp6190
I-1
aI65
asVpalm
p6191
(lp6192
I-1
aI11
asVpricing
p6193
(lp6194
I-1
aI18
asVsight
p6195
(lp6196
I-1
aI4
asVapply
p6197
(lp6198
I-1
aI7
asVclasses
p6199
(lp6200
I-1
aI4
asVEconomy
p6201
(lp6202
I-1
aI3
asVAMI
p6203
(lp6204
I-1
aI9
asVdelivered
p6205
(lp6206
I-1
aI13
asVgradually
p6207
(lp6208
I-1
aI3
asVdenominations
p6209
(lp6210
I-1
aI12
asVFrank
p6211
(lp6212
I-1
aI3
asVMoscow
p6213
(lp6214
I-1
aI8
asVspokesman
p6215
(lp6216
I-1
aI95
asVexceeding
p6217
(lp6218
I-1
aI3
asVWitter
p6219
(lp6220
I-1
aI8
asVLyng
p6221
(lp6222
I-1
aI10
asVmarket
p6223
(lp6224
I-1
aI281
asVslash
p6225
(lp6226
I-1
aI4
asVAMR
p6227
(lp6228
I-1
aI4
asVAndriessen
p6229
(lp6230
I-1
aI7
asVNorth
p6231
(lp6232
I-1
aI24
asVmeasures
p6233
(lp6234
I-1
aI25
asVrun
p6235
(lp6236
I-1
aI14
asV300
p6237
(lp6238
I-1
aI51
asVreach
p6239
(lp6240
I-1
aI10
asVprocessing
p6241
(lp6242
I-1
aI7
asVcontinuing
p6243
(lp6244
I-1
aI13
asVagreement
p6245
(lp6246
I-1
aI123
asVO
p6247
(lp6248
I-1
aI7
asVrebates
p6249
(lp6250
I-1
aI5
asVstep
p6251
(lp6252
I-1
aI9
asVredundancies
p6253
(lp6254
I-1
aI4
asVMedusa
p6255
(lp6256
I-1
aI6
asVabroad
p6257
(lp6258
I-1
aI12
asVtroops
p6259
(lp6260
I-1
aI5
asVsub
p6261
(lp6262
I-1
aI3
asVpipeline
p6263
(lp6264
I-1
aI11
asVgoods
p6265
(lp6266
I-1
aI16
asVconsumption
p6267
(lp6268
I-1
aI11
asVCommunications
p6269
(lp6270
I-1
aI12
asVexaggerated
p6271
(lp6272
I-1
aI4
asVPont
p6273
(lp6274
I-1
aI4
asVcompleting
p6275
(lp6276
I-1
aI3
asVSavings
p6277
(lp6278
I-1
aI7
asVreduced
p6279
(lp6280
I-1
aI20
asVrange
p6281
(lp6282
I-1
aI22
asVregular
p6283
(lp6284
I-1
aI5
asVbeans
p6285
(lp6286
I-1
aI8
asVCommittee
p6287
(lp6288
I-1
aI8
asVbean
p6289
(lp6290
I-1
aI3
asV73
p6291
(lp6292
I-1
aI14
asVreplacement
p6293
(lp6294
I-1
aI10
asVRedstone
p6295
(lp6296
I-1
aI25
asVfarmers
p6297
(lp6298
I-1
aI35
asV72
p6299
(lp6300
I-1
aI9
asVCynergy
p6301
(lp6302
I-1
aI5
asVseeing
p6303
(lp6304
I-1
aI4
asV71
p6305
(lp6306
I-1
aI14
asV70
p6307
(lp6308
I-1
aI38
asVintegral
p6309
(lp6310
I-1
aI3
asVsteady
p6311
(lp6312
I-1
aI8
asVShares
p6313
(lp6314
I-1
aI7
asVTheir
p6315
(lp6316
I-1
aI4
asVicebreaker
p6317
(lp6318
I-1
aI5
asVprimarily
p6319
(lp6320
I-1
aI5
asVQuebecor
p6321
(lp6322
I-1
aI8
asVextraordinary
p6323
(lp6324
I-1
aI21
asVinventories
p6325
(lp6326
I-1
aI8
asVbankruptcy
p6327
(lp6328
I-1
aI3
asVstatistics
p6329
(lp6330
I-1
aI10
asVspending
p6331
(lp6332
I-1
aI14
asVArmy
p6333
(lp6334
I-1
aI5
asVquestion
p6335
(lp6336
I-1
aI15
asVsubmit
p6337
(lp6338
I-1
aI3
asVcustom
p6339
(lp6340
I-1
aI6
asVWallenbergs
p6341
(lp6342
I-1
aI7
asVsoared
p6343
(lp6344
I-1
aI7
asVexceed
p6345
(lp6346
I-1
aI10
asVsuit
p6347
(lp6348
I-1
aI4
asVforward
p6349
(lp6350
I-1
aI6
asVJacques
p6351
(lp6352
I-1
aI3
asVoilseeds
p6353
(lp6354
I-1
aI3
asVrecord
p6355
(lp6356
I-1
aI67
asVmanufacture
p6357
(lp6358
I-1
aI4
asVSince
p6359
(lp6360
I-1
aI8
asVinteragency
p6361
(lp6362
I-1
aI3
asVunderlines
p6363
(lp6364
I-1
aI3
asVregistered
p6365
(lp6366
I-1
aI7
asVoils
p6367
(lp6368
I-1
aI6
asVslump
p6369
(lp6370
I-1
aI3
asVinstalments
p6371
(lp6372
I-1
aI3
asVreiterated
p6373
(lp6374
I-1
aI6
asVlink
p6375
(lp6376
I-1
aI4
asVFranklin
p6377
(lp6378
I-1
aI4
asVfrancs
p6379
(lp6380
I-1
aI42
asVFla
p6381
(lp6382
I-1
aI5
asVAshton
p6383
(lp6384
I-1
aI3
asVline
p6385
(lp6386
I-1
aI35
asV556
p6387
(lp6388
I-1
aI3
asVconsiderable
p6389
(lp6390
I-1
aI5
asVraising
p6391
(lp6392
I-1
aI8
asVposted
p6393
(lp6394
I-1
aI11
asVGDP
p6395
(lp6396
I-1
aI4
asVrejection
p6397
(lp6398
I-1
aI3
asVrefinancing
p6399
(lp6400
I-1
aI3
asVOffice
p6401
(lp6402
I-1
aI6
asVBell
p6403
(lp6404
I-1
aI5
asVTuesday
p6405
(lp6406
I-1
aI15
asVConsolidated
p6407
(lp6408
I-1
aI9
asVLoan
p6409
(lp6410
I-1
aI8
asVAfrica
p6411
(lp6412
I-1
aI6
asVpar
p6413
(lp6414
I-1
aI15
asVinternational
p6415
(lp6416
I-1
aI44
asVmaturity
p6417
(lp6418
I-1
aI12
asV116
p6419
(lp6420
I-1
aI6
asVexploration
p6421
(lp6422
I-1
aI7
asVreflects
p6423
(lp6424
I-1
aI5
asVStansbury
p6425
(lp6426
I-1
aI3
asVplanes
p6427
(lp6428
I-1
aI8
asVfluctuations
p6429
(lp6430
I-1
aI6
asVretaliatory
p6431
(lp6432
I-1
aI3
asVsimilar
p6433
(lp6434
I-1
aI14
asVprofessor
p6435
(lp6436
I-1
aI5
asVBankhaus
p6437
(lp6438
I-1
aI4
asVunits
p6439
(lp6440
I-1
aI30
asVordered
p6441
(lp6442
I-1
aI6
asVCooperation
p6443
(lp6444
I-1
aI7
asVdefined
p6445
(lp6446
I-1
aI5
asVlikewise
p6447
(lp6448
I-1
aI3
asVinfluence
p6449
(lp6450
I-1
aI6
asVmetals
p6451
(lp6452
I-1
aI6
asVTerminal
p6453
(lp6454
I-1
aI5
asVTo
p6455
(lp6456
I-1
aI11
asVengineering
p6457
(lp6458
I-1
aI8
asVparliament
p6459
(lp6460
I-1
aI8
asVcurb
p6461
(lp6462
I-1
aI8
asVInternational
p6463
(lp6464
I-1
aI93
asVManhattan
p6465
(lp6466
I-1
aI4
asVcotton
p6467
(lp6468
I-1
aI12
asVCommissioner
p6469
(lp6470
I-1
aI4
asVMar
p6471
(lp6472
I-1
aI6
asVamounts
p6473
(lp6474
I-1
aI7
asVHutchison
p6475
(lp6476
I-1
aI9
asVVenezuela
p6477
(lp6478
I-1
aI4
asVspokesmen
p6479
(lp6480
I-1
aI3
asVmatching
p6481
(lp6482
I-1
aI10
asVpreventing
p6483
(lp6484
I-1
aI3
asVapplication
p6485
(lp6486
I-1
aI8
asVpoliticians
p6487
(lp6488
I-1
aI4
asVdefinitely
p6489
(lp6490
I-1
aI5
asVelectrical
p6491
(lp6492
I-1
aI4
asVincome
p6493
(lp6494
I-1
aI33
asVdepartment
p6495
(lp6496
I-1
aI38
asVBrodersohn
p6497
(lp6498
I-1
aI6
asVrevision
p6499
(lp6500
I-1
aI7
asVAC
p6501
(lp6502
I-1
aI3
asVelements
p6503
(lp6504
I-1
aI4
asVusers
p6505
(lp6506
I-1
aI9
asVAG
p6507
(lp6508
I-1
aI15
asVprovided
p6509
(lp6510
I-1
aI17
asVAM
p6511
(lp6512
I-1
aI4
asVNakasone
p6513
(lp6514
I-1
aI11
asVWednesday
p6515
(lp6516
I-1
aI22
asVregulations
p6517
(lp6518
I-1
aI3
asVrupees
p6519
(lp6520
I-1
aI6
asVrise
p6521
(lp6522
I-1
aI81
asVAT
p6523
(lp6524
I-1
aI7
asVsides
p6525
(lp6526
I-1
aI9
asVstructure
p6527
(lp6528
I-1
aI10
asVago
p6529
(lp6530
I-1
aI46
asVGoldendale
p6531
(lp6532
I-1
aI5
asVseismologist
p6533
(lp6534
I-1
aI5
asVland
p6535
(lp6536
I-1
aI12
asVvice
p6537
(lp6538
I-1
aI35
asVComalco
p6539
(lp6540
I-1
aI11
asVComissaria
p6541
(lp6542
I-1
aI5
asVbacked
p6543
(lp6544
I-1
aI18
asVbankers
p6545
(lp6546
I-1
aI30
asVdepartments
p6547
(lp6548
I-1
aI3
asVAn
p6549
(lp6550
I-1
aI20
asV2002
p6551
(lp6552
I-1
aI3
asVAs
p6553
(lp6554
I-1
aI20
asVScott
p6555
(lp6556
I-1
aI6
asVAt
p6557
(lp6558
I-1
aI17
asVenrolled
p6559
(lp6560
I-1
aI3
asVfresh
p6561
(lp6562
I-1
aI9
asVSoviets
p6563
(lp6564
I-1
aI4
asVrequires
p6565
(lp6566
I-1
aI3
asVhaving
p6567
(lp6568
I-1
aI10
asVNazer
p6569
(lp6570
I-1
aI7
asVpartial
p6571
(lp6572
I-1
aI6
asVCPO
p6573
(lp6574
I-1
aI4
asVsales
p6575
(lp6576
I-1
aI110
asVissued
p6577
(lp6578
I-1
aI31
asVCPC
p6579
(lp6580
I-1
aI3
asVresults
p6581
(lp6582
I-1
aI31
asVexisting
p6583
(lp6584
I-1
aI22
asVBureau
p6585
(lp6586
I-1
aI5
asVserved
p6587
(lp6588
I-1
aI7
asVDepartment
p6589
(lp6590
I-1
aI32
asV718
p6591
(lp6592
I-1
aI3
asVadjustment
p6593
(lp6594
I-1
aI6
asVcontributions
p6595
(lp6596
I-1
aI3
asVcenters
p6597
(lp6598
I-1
aI5
asVissues
p6599
(lp6600
I-1
aI42
asVcompact
p6601
(lp6602
I-1
aI5
asVexcludes
p6603
(lp6604
I-1
aI8
asVNon
p6605
(lp6606
I-1
aI7
asVbreached
p6607
(lp6608
I-1
aI4
asVKleinwort
p6609
(lp6610
I-1
aI3
asVBusiness
p6611
(lp6612
I-1
aI17
asVconcerned
p6613
(lp6614
I-1
aI5
asVyoung
p6615
(lp6616
I-1
aI3
asVUAW
p6617
(lp6618
I-1
aI8
asVSiemens
p6619
(lp6620
I-1
aI5
asVStep
p6621
(lp6622
I-1
aI8
asVMontreal
p6623
(lp6624
I-1
aI5
asVexcluded
p6625
(lp6626
I-1
aI5
asVstable
p6627
(lp6628
I-1
aI9
asVNot
p6629
(lp6630
I-1
aI3
asVkms
p6631
(lp6632
I-1
aI4
asV64
p6633
(lp6634
I-1
aI19
asVinclude
p6635
(lp6636
I-1
aI45
asVUAE
p6637
(lp6638
I-1
aI4
asVsent
p6639
(lp6640
I-1
aI8
asVinject
p6641
(lp6642
I-1
aI3
asVprobe
p6643
(lp6644
I-1
aI4
asVPrudential
p6645
(lp6646
I-1
aI6
asVCanadian
p6647
(lp6648
I-1
aI40
asVcontinues
p6649
(lp6650
I-1
aI10
asVtransponders
p6651
(lp6652
I-1
aI3
asVminers
p6653
(lp6654
I-1
aI5
asVMinisters
p6655
(lp6656
I-1
aI3
asVP
p6657
(lp6658
I-1
aI26
asVasset
p6659
(lp6660
I-1
aI10
asVgraphic
p6661
(lp6662
I-1
aI4
asVtelling
p6663
(lp6664
I-1
aI4
asVcontinued
p6665
(lp6666
I-1
aI28
asVcategories
p6667
(lp6668
I-1
aI3
asVarrange
p6669
(lp6670
I-1
aI4
asVentire
p6671
(lp6672
I-1
aI11
asVInvestors
p6673
(lp6674
I-1
aI6
asVpositions
p6675
(lp6676
I-1
aI9
asVnotes
p6677
(lp6678
I-1
aI39
asVshock
p6679
(lp6680
I-1
aI7
asVICCH
p6681
(lp6682
I-1
aI4
asVexcessive
p6683
(lp6684
I-1
aI4
asVtry
p6685
(lp6686
I-1
aI19
asVTalking
p6687
(lp6688
I-1
aI3
asVRepublicBank
p6689
(lp6690
I-1
aI4
asVminimizing
p6691
(lp6692
I-1
aI3
asVverdict
p6693
(lp6694
I-1
aI3
asVSpa
p6695
(lp6696
I-1
aI5
asVSeattle
p6697
(lp6698
I-1
aI3
asVnoted
p6699
(lp6700
I-1
aI35
asVHill
p6701
(lp6702
I-1
aI3
asVTurkey
p6703
(lp6704
I-1
aI3
asVsmaller
p6705
(lp6706
I-1
aI8
asVpledge
p6707
(lp6708
I-1
aI4
asVHoward
p6709
(lp6710
I-1
aI10
asVincurred
p6711
(lp6712
I-1
aI5
asVCurrently
p6713
(lp6714
I-1
aI4
asVcrop
p6715
(lp6716
I-1
aI16
asVunprofitable
p6717
(lp6718
I-1
aI5
asVjump
p6719
(lp6720
I-1
aI3
asVfold
p6721
(lp6722
I-1
aI3
asVState
p6723
(lp6724
I-1
aI32
asVBendectin
p6725
(lp6726
I-1
aI3
asVvideo
p6727
(lp6728
I-1
aI5
asVlicenses
p6729
(lp6730
I-1
aI5
asVwheat
p6731
(lp6732
I-1
aI44
asVacid
p6733
(lp6734
I-1
aI4
asVgrowers
p6735
(lp6736
I-1
aI5
asVweek
p6737
(lp6738
I-1
aI187
asVUSDA
p6739
(lp6740
I-1
aI13
asVmanagers
p6741
(lp6742
I-1
aI21
asVindex
p6743
(lp6744
I-1
aI28
asVbusiness
p6745
(lp6746
I-1
aI80
asVrate
p6747
(lp6748
I-1
aI135
asVgiving
p6749
(lp6750
I-1
aI7
asVreaching
p6751
(lp6752
I-1
aI3
asVexpressed
p6753
(lp6754
I-1
aI7
asVaccess
p6755
(lp6756
I-1
aI15
asVpaying
p6757
(lp6758
I-1
aI19
asVWallis
p6759
(lp6760
I-1
aI8
asVvolatile
p6761
(lp6762
I-1
aI3
asVResources
p6763
(lp6764
I-1
aI9
asVmicroprocessor
p6765
(lp6766
I-1
aI4
asVmanufactured
p6767
(lp6768
I-1
aI3
asVBongard
p6769
(lp6770
I-1
aI3
asVfirms
p6771
(lp6772
I-1
aI45
asVAmerica
p6773
(lp6774
I-1
aI38
asVexercise
p6775
(lp6776
I-1
aI5
asVbody
p6777
(lp6778
I-1
aI6
asVcompletion
p6779
(lp6780
I-1
aI12
asVFutures
p6781
(lp6782
I-1
aI7
asVled
p6783
(lp6784
I-1
aI26
asVleg
p6785
(lp6786
I-1
aI3
asVNugget
p6787
(lp6788
I-1
aI3
asVrespectively
p6789
(lp6790
I-1
aI16
asV440
p6791
(lp6792
I-1
aI5
asVcommercial
p6793
(lp6794
I-1
aI64
asVjointly
p6795
(lp6796
I-1
aI4
asVPrior
p6797
(lp6798
I-1
aI4
asVlet
p6799
(lp6800
I-1
aI7
asVtotalled
p6801
(lp6802
I-1
aI13
asVunadjusted
p6803
(lp6804
I-1
aI4
asVconsideration
p6805
(lp6806
I-1
aI9
asVsoymeal
p6807
(lp6808
I-1
aI6
asVCommonwealth
p6809
(lp6810
I-1
aI7
asVgreat
p6811
(lp6812
I-1
aI5
asVengage
p6813
(lp6814
I-1
aI3
asVChinese
p6815
(lp6816
I-1
aI26
asVcts
p6817
(lp6818
I-1
aI138
asVreceive
p6819
(lp6820
I-1
aI29
asVinvolved
p6821
(lp6822
I-1
aI18
asVEnergy
p6823
(lp6824
I-1
aI9
asV30
p6825
(lp6826
I-1
aI94
asV37
p6827
(lp6828
I-1
aI20
asV36
p6829
(lp6830
I-1
aI20
asV35
p6831
(lp6832
I-1
aI51
asVArchive
p6833
(lp6834
I-1
aI3
asVengine
p6835
(lp6836
I-1
aI6
asVCBS
p6837
(lp6838
I-1
aI6
asVsurvey
p6839
(lp6840
I-1
aI10
asVNYMEX
p6841
(lp6842
I-1
aI8
asVdifficulty
p6843
(lp6844
I-1
aI5
asVArabia
p6845
(lp6846
I-1
aI16
asVopinion
p6847
(lp6848
I-1
aI3
asVclimb
p6849
(lp6850
I-1
aI3
asVmakes
p6851
(lp6852
I-1
aI12
asVmaker
p6853
(lp6854
I-1
aI4
asVStaff
p6855
(lp6856
I-1
aI8
asVexamining
p6857
(lp6858
I-1
aI3
asVnamed
p6859
(lp6860
I-1
aI16
asVREUTER
p6861
(lp6862
I-1
aI236
asVforesee
p6863
(lp6864
I-1
aI5
asVclaim
p6865
(lp6866
I-1
aI4
asV334
p6867
(lp6868
I-1
aI4
asVRobert
p6869
(lp6870
I-1
aI18
asVmanage
p6871
(lp6872
I-1
aI6
asVprivate
p6873
(lp6874
I-1
aI46
asVsurpluses
p6875
(lp6876
I-1
aI6
asVdecrease
p6877
(lp6878
I-1
aI12
asVprivately
p6879
(lp6880
I-1
aI5
asVManila
p6881
(lp6882
I-1
aI9
asVBrazilian
p6883
(lp6884
I-1
aI26
asVscandal
p6885
(lp6886
I-1
aI17
asVIndustrie
p6887
(lp6888
I-1
aI4
asVcomplex
p6889
(lp6890
I-1
aI4
asVSMC
p6891
(lp6892
I-1
aI10
asVmanipulate
p6893
(lp6894
I-1
aI3
asVstanding
p6895
(lp6896
I-1
aI4
asVconfidence
p6897
(lp6898
I-1
aI4
asVfee
p6899
(lp6900
I-1
aI10
asVLeucadia
p6901
(lp6902
I-1
aI7
asVfigure
p6903
(lp6904
I-1
aI13
asVcertificate
p6905
(lp6906
I-1
aI5
asVremains
p6907
(lp6908
I-1
aI11
asVministers
p6909
(lp6910
I-1
aI16
asVpredict
p6911
(lp6912
I-1
aI4
asVdoubt
p6913
(lp6914
I-1
aI5
asVestimated
p6915
(lp6916
I-1
aI44
asVsubsidized
p6917
(lp6918
I-1
aI7
asVvehicle
p6919
(lp6920
I-1
aI6
asVtiming
p6921
(lp6922
I-1
aI7
asVpanel
p6923
(lp6924
I-1
aI8
asVMemphis
p6925
(lp6926
I-1
aI5
asVsubsidies
p6927
(lp6928
I-1
aI12
asVmidday
p6929
(lp6930
I-1
aI3
asVBaglini
p6931
(lp6932
I-1
aI4
asVgained
p6933
(lp6934
I-1
aI3
asVMulti
p6935
(lp6936
I-1
aI8
asVLand
p6937
(lp6938
I-1
aI4
asVformally
p6939
(lp6940
I-1
aI4
asVstarted
p6941
(lp6942
I-1
aI19
asVBP
p6943
(lp6944
I-1
aI7
asVfactor
p6945
(lp6946
I-1
aI10
asVbenchmark
p6947
(lp6948
I-1
aI3
asVoccurred
p6949
(lp6950
I-1
aI4
asVreappointment
p6951
(lp6952
I-1
aI4
asVcooperate
p6953
(lp6954
I-1
aI5
asVdealings
p6955
(lp6956
I-1
aI3
asVcarrying
p6957
(lp6958
I-1
aI6
asVderegulate
p6959
(lp6960
I-1
aI3
asVsharply
p6961
(lp6962
I-1
aI8
asV8
p6963
(lp6964
I-1
aI234
asVarranging
p6965
(lp6966
I-1
aI3
asVdeparture
p6967
(lp6968
I-1
aI8
asVappointed
p6969
(lp6970
I-1
aI14
asVBache
p6971
(lp6972
I-1
aI4
asVcustomer
p6973
(lp6974
I-1
aI9
asVWedge
p6975
(lp6976
I-1
aI6
asVaccount
p6977
(lp6978
I-1
aI30
asVextension
p6979
(lp6980
I-1
aI6
asVeffectively
p6981
(lp6982
I-1
aI5
asVaveraged
p6983
(lp6984
I-1
aI7
asVTaiwanese
p6985
(lp6986
I-1
aI3
asVNTT
p6987
(lp6988
I-1
aI8
asVrecession
p6989
(lp6990
I-1
aI7
asVVideo
p6991
(lp6992
I-1
aI3
asVisland
p6993
(lp6994
I-1
aI5
asVaccrued
p6995
(lp6996
I-1
aI5
asVmeet
p6997
(lp6998
I-1
aI51
asVclosing
p6999
(lp7000
I-1
aI11
asVdropped
p7001
(lp7002
I-1
aI12
asVcontrol
p7003
(lp7004
I-1
aI39
asVFiat
p7005
(lp7006
I-1
aI4
asVtap
p7007
(lp7008
I-1
aI3
asVcouncil
p7009
(lp7010
I-1
aI23
asVNorthern
p7011
(lp7012
I-1
aI6
asVprocess
p7013
(lp7014
I-1
aI15
asVDutch
p7015
(lp7016
I-1
aI12
asVtax
p7017
(lp7018
I-1
aI110
asVpurposes
p7019
(lp7020
I-1
aI12
asVhigh
p7021
(lp7022
I-1
aI61
asVPioneer
p7023
(lp7024
I-1
aI3
asVreserves
p7025
(lp7026
I-1
aI52
asVMITI
p7027
(lp7028
I-1
aI5
asVsought
p7029
(lp7030
I-1
aI7
asVParty
p7031
(lp7032
I-1
aI8
asVAustralian
p7033
(lp7034
I-1
aI17
asVSeveral
p7035
(lp7036
I-1
aI5
asVmaturities
p7037
(lp7038
I-1
aI8
asVclothing
p7039
(lp7040
I-1
aI4
asVpurpose
p7041
(lp7042
I-1
aI7
asVreuter
p7043
(lp7044
I-1
aI3
asVIntermediate
p7045
(lp7046
I-1
aI3
asVcarries
p7047
(lp7048
I-1
aI4
asVarrangement
p7049
(lp7050
I-1
aI6
asVdelay
p7051
(lp7052
I-1
aI7
asVlocated
p7053
(lp7054
I-1
aI3
asVColeco
p7055
(lp7056
I-1
aI3
asVanimal
p7057
(lp7058
I-1
aI4
asVsuspend
p7059
(lp7060
I-1
aI4
asVSeasons
p7061
(lp7062
I-1
aI4
asVPayment
p7063
(lp7064
I-1
aI6
asVstock
p7065
(lp7066
I-1
aI196
asVbuildings
p7067
(lp7068
I-1
aI8
asVemployee
p7069
(lp7070
I-1
aI5
asVattend
p7071
(lp7072
I-1
aI5
asVfarm
p7073
(lp7074
I-1
aI28
asVA320
p7075
(lp7076
I-1
aI3
asVunderway
p7077
(lp7078
I-1
aI4
asVLocal
p7079
(lp7080
I-1
aI5
asVBritish
p7081
(lp7082
I-1
aI35
asVDOT
p7083
(lp7084
I-1
aI4
asVdiscard
p7085
(lp7086
I-1
aI3
asVoutlays
p7087
(lp7088
I-1
aI5
asVrequirements
p7089
(lp7090
I-1
aI12
asVintroduced
p7091
(lp7092
I-1
aI25
asVApple
p7093
(lp7094
I-1
aI20
asVlight
p7095
(lp7096
I-1
aI5
asVcounter
p7097
(lp7098
I-1
aI3
asVlines
p7099
(lp7100
I-1
aI12
asVResults
p7101
(lp7102
I-1
aI3
asVCommunity
p7103
(lp7104
I-1
aI19
asVOne
p7105
(lp7106
I-1
aI26
asVcommodities
p7107
(lp7108
I-1
aI7
asVchief
p7109
(lp7110
I-1
aI45
asVReserves
p7111
(lp7112
I-1
aI3
asVallow
p7113
(lp7114
I-1
aI17
asVbuoyant
p7115
(lp7116
I-1
aI5
asVsoftware
p7117
(lp7118
I-1
aI21
asVdiscussion
p7119
(lp7120
I-1
aI4
asVKeidanren
p7121
(lp7122
I-1
aI4
asVWilson
p7123
(lp7124
I-1
aI4
asVKaiser
p7125
(lp7126
I-1
aI5
asVlenders
p7127
(lp7128
I-1
aI10
asVproducer
p7129
(lp7130
I-1
aI24
asVinstitutional
p7131
(lp7132
I-1
aI7
asVHongkong
p7133
(lp7134
I-1
aI11
asVareas
p7135
(lp7136
I-1
aI21
asVcompeting
p7137
(lp7138
I-1
aI5
asVComputerland
p7139
(lp7140
I-1
aI6
asVdoubtful
p7141
(lp7142
I-1
aI3
asVproduced
p7143
(lp7144
I-1
aI10
asVPhillips
p7145
(lp7146
I-1
aI4
asVprolonged
p7147
(lp7148
I-1
aI3
asVincluding
p7149
(lp7150
I-1
aI57
asVAdministration
p7151
(lp7152
I-1
aI13
asVquake
p7153
(lp7154
I-1
aI3
asVOrganization
p7155
(lp7156
I-1
aI13
asVconverting
p7157
(lp7158
I-1
aI3
asV139
p7159
(lp7160
I-1
aI3
asV138
p7161
(lp7162
I-1
aI5
asVFinal
p7163
(lp7164
I-1
aI6
asVMatch
p7165
(lp7166
I-1
aI7
asVindustries
p7167
(lp7168
I-1
aI20
asVregions
p7169
(lp7170
I-1
aI7
asVnegotiated
p7171
(lp7172
I-1
aI4
asVlb
p7173
(lp7174
I-1
aI5
asVScientific
p7175
(lp7176
I-1
aI4
asVExchange
p7177
(lp7178
I-1
aI66
asVchosen
p7179
(lp7180
I-1
aI4
asVShelf
p7181
(lp7182
I-1
aI3
asVll
p7183
(lp7184
I-1
aI4
asVlabor
p7185
(lp7186
I-1
aI7
asVDirector
p7187
(lp7188
I-1
aI6
asVwilling
p7189
(lp7190
I-1
aI9
asVcovered
p7191
(lp7192
I-1
aI6
asVchances
p7193
(lp7194
I-1
aI4
asV2011
p7195
(lp7196
I-1
aI6
asVLBO
p7197
(lp7198
I-1
aI4
asVdesigns
p7199
(lp7200
I-1
aI5
asVgreater
p7201
(lp7202
I-1
aI11
asVMiami
p7203
(lp7204
I-1
aI4
asVauto
p7205
(lp7206
I-1
aI5
asVoutlined
p7207
(lp7208
I-1
aI3
asVpractice
p7209
(lp7210
I-1
aI4
asVearn
p7211
(lp7212
I-1
aI3
asVadversely
p7213
(lp7214
I-1
aI4
asVTwo
p7215
(lp7216
I-1
aI3
asVcutting
p7217
(lp7218
I-1
aI8
asVSocial
p7219
(lp7220
I-1
aI8
asVconsecutive
p7221
(lp7222
I-1
aI3
asV029
p7223
(lp7224
I-1
aI4
asVday
p7225
(lp7226
I-1
aI55
asVpresidential
p7227
(lp7228
I-1
aI5
asVsuccessor
p7229
(lp7230
I-1
aI3
asVPre
p7231
(lp7232
I-1
aI13
asVcocoa
p7233
(lp7234
I-1
aI10
asVAluminium
p7235
(lp7236
I-1
aI10
asVsubsidiaries
p7237
(lp7238
I-1
aI4
asVSan
p7239
(lp7240
I-1
aI11
asVYasuhiro
p7241
(lp7242
I-1
aI4
asVPoor
p7243
(lp7244
I-1
aI11
asVwarned
p7245
(lp7246
I-1
aI6
asVcountries
p7247
(lp7248
I-1
aI56
asVWorld
p7249
(lp7250
I-1
aI25
asVidentified
p7251
(lp7252
I-1
aI7
asVregistrations
p7253
(lp7254
I-1
aI4
asVmerge
p7255
(lp7256
I-1
aI6
asVslide
p7257
(lp7258
I-1
aI3
asVweather
p7259
(lp7260
I-1
aI8
asVshortage
p7261
(lp7262
I-1
aI12
asVPesch
p7263
(lp7264
I-1
aI24
asVaccompanied
p7265
(lp7266
I-1
aI4
asVbills
p7267
(lp7268
I-1
aI14
asVOver
p7269
(lp7270
I-1
aI3
asVAlbertson
p7271
(lp7272
I-1
aI3
asVStatistics
p7273
(lp7274
I-1
aI6
asVNetwork
p7275
(lp7276
I-1
aI6
asVdoing
p7277
(lp7278
I-1
aI11
asV700
p7279
(lp7280
I-1
aI20
asVrestructured
p7281
(lp7282
I-1
aI6
asVrelated
p7283
(lp7284
I-1
aI12
asV88
p7285
(lp7286
I-1
aI36
asVfrequency
p7287
(lp7288
I-1
aI3
asVMinneapolis
p7289
(lp7290
I-1
aI4
asVTreasury
p7291
(lp7292
I-1
aI61
asV82
p7293
(lp7294
I-1
aI10
asV83
p7295
(lp7296
I-1
aI7
asVmargins
p7297
(lp7298
I-1
aI6
asV81
p7299
(lp7300
I-1
aI11
asVagriculture
p7301
(lp7302
I-1
aI17
asV87
p7303
(lp7304
I-1
aI40
asVspecial
p7305
(lp7306
I-1
aI32
asV85
p7307
(lp7308
I-1
aI21
asVdecision
p7309
(lp7310
I-1
aI26
asVhouse
p7311
(lp7312
I-1
aI5
asVinch
p7313
(lp7314
I-1
aI8
asVAgreement
p7315
(lp7316
I-1
aI7
asVwholly
p7317
(lp7318
I-1
aI11
asVChina
p7319
(lp7320
I-1
aI66
asVbarley
p7321
(lp7322
I-1
aI3
asVevacuation
p7323
(lp7324
I-1
aI5
asVclearing
p7325
(lp7326
I-1
aI5
asVelectronics
p7327
(lp7328
I-1
aI5
asVintervention
p7329
(lp7330
I-1
aI3
asVcause
p7331
(lp7332
I-1
aI16
asVintegrated
p7333
(lp7334
I-1
aI3
asVannounced
p7335
(lp7336
I-1
aI56
asVTEC
p7337
(lp7338
I-1
aI3
asVdisclose
p7339
(lp7340
I-1
aI8
asVfranc
p7341
(lp7342
I-1
aI27
asVsmelter
p7343
(lp7344
I-1
aI8
asVCrosbie
p7345
(lp7346
I-1
aI3
asVapproached
p7347
(lp7348
I-1
aI5
asV581
p7349
(lp7350
I-1
aI3
asVThis
p7351
(lp7352
I-1
aI50
asVsouthern
p7353
(lp7354
I-1
aI6
asVwithdrawal
p7355
(lp7356
I-1
aI5
asVdelegates
p7357
(lp7358
I-1
aI29
asVembassy
p7359
(lp7360
I-1
aI10
asVban
p7361
(lp7362
I-1
aI9
asVregulators
p7363
(lp7364
I-1
aI8
asVMiguel
p7365
(lp7366
I-1
aI3
asVregulatory
p7367
(lp7368
I-1
aI8
asV1982
p7369
(lp7370
I-1
aI5
asV149
p7371
(lp7372
I-1
aI5
asVsteering
p7373
(lp7374
I-1
aI4
asVreceipts
p7375
(lp7376
I-1
aI4
asVresumed
p7377
(lp7378
I-1
aI3
asVallies
p7379
(lp7380
I-1
aI4
asVdetermining
p7381
(lp7382
I-1
aI4
asVHenske
p7383
(lp7384
I-1
aI4
asVArsenal
p7385
(lp7386
I-1
aI9
asVtimes
p7387
(lp7388
I-1
aI26
asVCurrency
p7389
(lp7390
I-1
aI4
asVlength
p7391
(lp7392
I-1
aI4
asVOnly
p7393
(lp7394
I-1
aI5
asVassumed
p7395
(lp7396
I-1
aI4
asVretain
p7397
(lp7398
I-1
aI7
asVretail
p7399
(lp7400
I-1
aI5
asVfacilitate
p7401
(lp7402
I-1
aI4
asVstimulate
p7403
(lp7404
I-1
aI3
asVDavid
p7405
(lp7406
I-1
aI12
asVlosses
p7407
(lp7408
I-1
aI27
asVprospective
p7409
(lp7410
I-1
aI3
asVplastics
p7411
(lp7412
I-1
aI3
asV450
p7413
(lp7414
I-1
aI8
asVpowerful
p7415
(lp7416
I-1
aI3
asVBurdett
p7417
(lp7418
I-1
aI6
asV456
p7419
(lp7420
I-1
aI3
asVstrategic
p7421
(lp7422
I-1
aI8
asVimproving
p7423
(lp7424
I-1
aI8
asVProgram
p7425
(lp7426
I-1
aI3
asVlagging
p7427
(lp7428
I-1
aI3
asVowner
p7429
(lp7430
I-1
aI4
asVmandatory
p7431
(lp7432
I-1
aI3
asVblows
p7433
(lp7434
I-1
aI3
asVawarded
p7435
(lp7436
I-1
aI8
asVquality
p7437
(lp7438
I-1
aI10
asVstraight
p7439
(lp7440
I-1
aI9
asVPharma
p7441
(lp7442
I-1
aI7
asVmanagement
p7443
(lp7444
I-1
aI65
asVIran
p7445
(lp7446
I-1
aI31
asVDistrict
p7447
(lp7448
I-1
aI4
asVEastern
p7449
(lp7450
I-1
aI8
asVFarm
p7451
(lp7452
I-1
aI4
asVnomination
p7453
(lp7454
I-1
aI12
asVdurable
p7455
(lp7456
I-1
aI3
asVadopted
p7457
(lp7458
I-1
aI6
asVCoast
p7459
(lp7460
I-1
aI6
asVpriority
p7461
(lp7462
I-1
aI3
asVattack
p7463
(lp7464
I-1
aI3
asVNUM
p7465
(lp7466
I-1
aI3
asVBrokers
p7467
(lp7468
I-1
aI3
asVAutomated
p7469
(lp7470
I-1
aI3
asVdeveloper
p7471
(lp7472
I-1
aI3
asVrigs
p7473
(lp7474
I-1
aI13
asVIraq
p7475
(lp7476
I-1
aI16
asVfinal
p7477
(lp7478
I-1
aI29
asVAssociation
p7479
(lp7480
I-1
aI30
asVsmelting
p7481
(lp7482
I-1
aI4
asVinterests
p7483
(lp7484
I-1
aI13
asVKa
p7485
(lp7486
I-1
aI3
asVEckenfelder
p7487
(lp7488
I-1
aI3
asVvigorous
p7489
(lp7490
I-1
aI3
asVPlenty
p7491
(lp7492
I-1
aI5
asVshelf
p7493
(lp7494
I-1
aI7
asVcompleted
p7495
(lp7496
I-1
aI35
asVexactly
p7497
(lp7498
I-1
aI5
asVchemicals
p7499
(lp7500
I-1
aI8
asVR
p7501
(lp7502
I-1
aI24
asVLIBOR
p7503
(lp7504
I-1
aI17
asVDemocratic
p7505
(lp7506
I-1
aI10
asVsteel
p7507
(lp7508
I-1
aI19
asVresist
p7509
(lp7510
I-1
aI4
asVbid
p7511
(lp7512
I-1
aI46
asVcommodity
p7513
(lp7514
I-1
aI9
asVminister
p7515
(lp7516
I-1
aI12
asVsubmitted
p7517
(lp7518
I-1
aI8
asVlimiting
p7519
(lp7520
I-1
aI6
asVcompensation
p7521
(lp7522
I-1
aI8
asVdefense
p7523
(lp7524
I-1
aI4
asVSeries
p7525
(lp7526
I-1
aI4
asVbriefing
p7527
(lp7528
I-1
aI3
asVvisited
p7529
(lp7530
I-1
aI3
asVZaire
p7531
(lp7532
I-1
aI8
asVproviding
p7533
(lp7534
I-1
aI3
asVbet
p7535
(lp7536
I-1
aI3
asVresult
p7537
(lp7538
I-1
aI45
asVberths
p7539
(lp7540
I-1
aI3
asVInformation
p7541
(lp7542
I-1
aI3
asVAAA
p7543
(lp7544
I-1
aI4
asVRichard
p7545
(lp7546
I-1
aI14
asV189
p7547
(lp7548
I-1
aI3
asVunchanged
p7549
(lp7550
I-1
aI21
asVpartnership
p7551
(lp7552
I-1
aI12
asVKokan
p7553
(lp7554
I-1
aI3
asVtonight
p7555
(lp7556
I-1
aI4
asVOther
p7557
(lp7558
I-1
aI15
asVunlikely
p7559
(lp7560
I-1
aI14
asVdictate
p7561
(lp7562
I-1
aI3
asVneed
p7563
(lp7564
I-1
aI37
asVfacing
p7565
(lp7566
I-1
aI9
asVturn
p7567
(lp7568
I-1
aI6
asVapparently
p7569
(lp7570
I-1
aI3
asVclearly
p7571
(lp7572
I-1
aI7
asVPan
p7573
(lp7574
I-1
aI6
asVDevelopment
p7575
(lp7576
I-1
aI13
asVdocuments
p7577
(lp7578
I-1
aI9
asVsmallest
p7579
(lp7580
I-1
aI5
asVbrokers
p7581
(lp7582
I-1
aI18
asVAirways
p7583
(lp7584
I-1
aI10
asV0000
p7585
(lp7586
I-1
aI5
asVstudying
p7587
(lp7588
I-1
aI5
asVagency
p7589
(lp7590
I-1
aI27
asVable
p7591
(lp7592
I-1
aI14
asVmid
p7593
(lp7594
I-1
aI20
asVpurchasing
p7595
(lp7596
I-1
aI6
asVFluor
p7597
(lp7598
I-1
aI3
asV320
p7599
(lp7600
I-1
aI5
asVissuing
p7601
(lp7602
I-1
aI26
asVdeclined
p7603
(lp7604
I-1
aI39
asVSanta
p7605
(lp7606
I-1
aI5
asV325
p7607
(lp7608
I-1
aI3
asVreactions
p7609
(lp7610
I-1
aI3
asVLeslie
p7611
(lp7612
I-1
aI6
asV328
p7613
(lp7614
I-1
aI4
asVsubject
p7615
(lp7616
I-1
aI26
asVworldwide
p7617
(lp7618
I-1
aI20
asVcriteria
p7619
(lp7620
I-1
aI5
asVPierce
p7621
(lp7622
I-1
aI4
asV56
p7623
(lp7624
I-1
aI14
asVunless
p7625
(lp7626
I-1
aI8
asVexpires
p7627
(lp7628
I-1
aI11
asV00
p7629
(lp7630
I-1
aI15
asVcallable
p7631
(lp7632
I-1
aI11
asVsaid
p7633
(lp7634
I-1
aI2470
asVFinance
p7635
(lp7636
I-1
aI51
asVpreliminary
p7637
(lp7638
I-1
aI11
asVdevice
p7639
(lp7640
I-1
aI4
asVcapacity
p7641
(lp7642
I-1
aI26
asVsegment
p7643
(lp7644
I-1
aI5
asVAsked
p7645
(lp7646
I-1
aI10
asVReserve
p7647
(lp7648
I-1
aI29
asVvolume
p7649
(lp7650
I-1
aI24
asVplacement
p7651
(lp7652
I-1
aI5
asVreduces
p7653
(lp7654
I-1
aI3
asVconsequences
p7655
(lp7656
I-1
aI3
asVwon
p7657
(lp7658
I-1
aI12
asVenthusiastic
p7659
(lp7660
I-1
aI3
asVstronger
p7661
(lp7662
I-1
aI4
asVquestioned
p7663
(lp7664
I-1
aI3
asVdollar
p7665
(lp7666
I-1
aI62
asVface
p7667
(lp7668
I-1
aI12
asVHigh
p7669
(lp7670
I-1
aI4
asVDonald
p7671
(lp7672
I-1
aI8
asVlowered
p7673
(lp7674
I-1
aI11
asVExport
p7675
(lp7676
I-1
aI4
asVMCV
p7677
(lp7678
I-1
aI5
asVeurobonds
p7679
(lp7680
I-1
aI6
asV08
p7681
(lp7682
I-1
aI6
asVfact
p7683
(lp7684
I-1
aI4
asVimpression
p7685
(lp7686
I-1
aI3
asVexclusive
p7687
(lp7688
I-1
aI6
asVParis
p7689
(lp7690
I-1
aI11
asVagreed
p7691
(lp7692
I-1
aI88
asVsupported
p7693
(lp7694
I-1
aI6
asVterminate
p7695
(lp7696
I-1
aI4
asVChemical
p7697
(lp7698
I-1
aI17
asVbring
p7699
(lp7700
I-1
aI14
asVkits
p7701
(lp7702
I-1
aI3
asVContel
p7703
(lp7704
I-1
aI4
asVUnder
p7705
(lp7706
I-1
aI28
asVRegan
p7707
(lp7708
I-1
aI25
asVWaste
p7709
(lp7710
I-1
aI8
asVeconomist
p7711
(lp7712
I-1
aI13
asVPublic
p7713
(lp7714
I-1
aI6
asVdecade
p7715
(lp7716
I-1
aI3
asVprincipal
p7717
(lp7718
I-1
aI23
asVpartners
p7719
(lp7720
I-1
aI10
asVpromote
p7721
(lp7722
I-1
aI6
asVbased
p7723
(lp7724
I-1
aI67
asVUnderwriters
p7725
(lp7726
I-1
aI6
asVMeanwhile
p7727
(lp7728
I-1
aI4
asVholder
p7729
(lp7730
I-1
aI7
asVcontrols
p7731
(lp7732
I-1
aI12
asVchipmakers
p7733
(lp7734
I-1
aI3
asVterminal
p7735
(lp7736
I-1
aI5
asVentities
p7737
(lp7738
I-1
aI4
asVplanted
p7739
(lp7740
I-1
aI3
asVtape
p7741
(lp7742
I-1
aI4
asVYork
p7743
(lp7744
I-1
aI74
asVUltramar
p7745
(lp7746
I-1
aI4
asVfuel
p7747
(lp7748
I-1
aI9
asVemployed
p7749
(lp7750
I-1
aI3
asVthousands
p7751
(lp7752
I-1
aI5
asVhope
p7753
(lp7754
I-1
aI10
asVmeant
p7755
(lp7756
I-1
aI6
asVadvisory
p7757
(lp7758
I-1
aI14
asVbonds
p7759
(lp7760
I-1
aI82
asVSmith
p7761
(lp7762
I-1
aI9
asVoverall
p7763
(lp7764
I-1
aI21
asVpave
p7765
(lp7766
I-1
aI4
asVvehicles
p7767
(lp7768
I-1
aI13
asV120
p7769
(lp7770
I-1
aI11
asVCoal
p7771
(lp7772
I-1
aI3
asV122
p7773
(lp7774
I-1
aI3
asV124
p7775
(lp7776
I-1
aI3
asV125
p7777
(lp7778
I-1
aI13
asVexchanges
p7779
(lp7780
I-1
aI12
asVbuyer
p7781
(lp7782
I-1
aI3
asVLeasing
p7783
(lp7784
I-1
aI3
asVIslands
p7785
(lp7786
I-1
aI5
asVRiver
p7787
(lp7788
I-1
aI9
asVprocedures
p7789
(lp7790
I-1
aI4
asVItalian
p7791
(lp7792
I-1
aI13
asVfollowing
p7793
(lp7794
I-1
aI27
asVshr
p7795
(lp7796
I-1
aI30
asVBecause
p7797
(lp7798
I-1
aI7
asVtobacco
p7799
(lp7800
I-1
aI7
asVhiring
p7801
(lp7802
I-1
aI5
asVNew
p7803
(lp7804
I-1
aI118
asV362
p7805
(lp7806
I-1
aI3
asVcomprising
p7807
(lp7808
I-1
aI5
asVtaxes
p7809
(lp7810
I-1
aI9
asVEurofer
p7811
(lp7812
I-1
aI3
asVallocate
p7813
(lp7814
I-1
aI3
asV130
p7815
(lp7816
I-1
aI8
asVBoth
p7817
(lp7818
I-1
aI13
asVdangerous
p7819
(lp7820
I-1
aI3
asV137
p7821
(lp7822
I-1
aI5
asVfixed
p7823
(lp7824
I-1
aI14
asVview
p7825
(lp7826
I-1
aI11
asVBurnham
p7827
(lp7828
I-1
aI4
asVrequirement
p7829
(lp7830
I-1
aI12
asVqtr
p7831
(lp7832
I-1
aI12
asV135
p7833
(lp7834
I-1
aI4
asVacquired
p7835
(lp7836
I-1
aI34
asVnational
p7837
(lp7838
I-1
aI15
asVcuts
p7839
(lp7840
I-1
aI11
asVC
p7841
(lp7842
I-1
aI23
asVAlaska
p7843
(lp7844
I-1
aI4
asVoperates
p7845
(lp7846
I-1
aI10
asVTraders
p7847
(lp7848
I-1
aI6
asVCRA
p7849
(lp7850
I-1
aI12
asVchanges
p7851
(lp7852
I-1
aI22
asVenhanced
p7853
(lp7854
I-1
aI3
asVagricultural
p7855
(lp7856
I-1
aI18
asVoperated
p7857
(lp7858
I-1
aI3
asVCentral
p7859
(lp7860
I-1
aI15
asVbidders
p7861
(lp7862
I-1
aI4
asVWhite
p7863
(lp7864
I-1
aI31
asVtextiles
p7865
(lp7866
I-1
aI7
asVcloser
p7867
(lp7868
I-1
aI3
asVWisconsin
p7869
(lp7870
I-1
aI4
asVextend
p7871
(lp7872
I-1
aI4
asVattempting
p7873
(lp7874
I-1
aI3
asVnuclear
p7875
(lp7876
I-1
aI6
asVPC
p7877
(lp7878
I-1
aI17
asVstate
p7879
(lp7880
I-1
aI47
asVconverted
p7881
(lp7882
I-1
aI5
asVdirectors
p7883
(lp7884
I-1
aI19
asVcrude
p7885
(lp7886
I-1
aI29
asVprogress
p7887
(lp7888
I-1
aI13
asVJuly
p7889
(lp7890
I-1
aI35
asVRepublican
p7891
(lp7892
I-1
aI15
asVSESDAQ
p7893
(lp7894
I-1
aI3
asVsold
p7895
(lp7896
I-1
aI51
asVmidnight
p7897
(lp7898
I-1
aI5
asVbought
p7899
(lp7900
I-1
aI27
asVends
p7901
(lp7902
I-1
aI4
asVvarious
p7903
(lp7904
I-1
aI9
asVability
p7905
(lp7906
I-1
aI17
asVsuperior
p7907
(lp7908
I-1
aI3
asVEFP
p7909
(lp7910
I-1
aI3
asVArgentina
p7911
(lp7912
I-1
aI26
asVagencies
p7913
(lp7914
I-1
aI20
asVS
p7915
(lp7916
I-1
aI427
asVtakeover
p7917
(lp7918
I-1
aI26
asVkey
p7919
(lp7920
I-1
aI19
asVapproval
p7921
(lp7922
I-1
aI47
asVdenomination
p7923
(lp7924
I-1
aI3
asVoptional
p7925
(lp7926
I-1
aI4
asVproblem
p7927
(lp7928
I-1
aI28
asVdeclining
p7929
(lp7930
I-1
aI10
asVMacintosh
p7931
(lp7932
I-1
aI19
asVrestrictions
p7933
(lp7934
I-1
aI10
asVAvg
p7935
(lp7936
I-1
aI14
asVAegean
p7937
(lp7938
I-1
aI3
asVlimits
p7939
(lp7940
I-1
aI5
asVleveraged
p7941
(lp7942
I-1
aI5
asVinvited
p7943
(lp7944
I-1
aI3
asVdeficits
p7945
(lp7946
I-1
aI5
asVdrug
p7947
(lp7948
I-1
aI23
asVInsurance
p7949
(lp7950
I-1
aI15
asVSaatchi
p7951
(lp7952
I-1
aI4
asVfigures
p7953
(lp7954
I-1
aI41
asVQuebec
p7955
(lp7956
I-1
aI10
asVauctions
p7957
(lp7958
I-1
aI4
asVproceed
p7959
(lp7960
I-1
aI5
asVcandidates
p7961
(lp7962
I-1
aI5
asVRexnord
p7963
(lp7964
I-1
aI11
asVcomment
p7965
(lp7966
I-1
aI25
asVstrongly
p7967
(lp7968
I-1
aI5
asVadjusted
p7969
(lp7970
I-1
aI27
asVundermined
p7971
(lp7972
I-1
aI3
asVdiplomats
p7973
(lp7974
I-1
aI4
asV386
p7975
(lp7976
I-1
aI4
asVshipment
p7977
(lp7978
I-1
aI11
asVLuxembourg
p7979
(lp7980
I-1
aI10
asVpackaging
p7981
(lp7982
I-1
aI4
asVLos
p7983
(lp7984
I-1
aI12
asVtable
p7985
(lp7986
I-1
aI3
asVallocated
p7987
(lp7988
I-1
aI7
asVacres
p7989
(lp7990
I-1
aI5
asVDrug
p7991
(lp7992
I-1
aI4
asVTemple
p7993
(lp7994
I-1
aI3
asVct
p7995
(lp7996
I-1
aI4
asVRevenues
p7997
(lp7998
I-1
aI4
asVaddition
p7999
(lp8000
I-1
aI16
asVquotas
p8001
(lp8002
I-1
aI43
asVcent
p8003
(lp8004
I-1
aI25
asVoffers
p8005
(lp8006
I-1
aI11
asVagreements
p8007
(lp8008
I-1
aI12
asVentitle
p8009
(lp8010
I-1
aI6
asVColorado
p8011
(lp8012
I-1
aI4
asVAziz
p8013
(lp8014
I-1
aI5
asVThailand
p8015
(lp8016
I-1
aI14
asVproposal
p8017
(lp8018
I-1
aI50
asVimprove
p8019
(lp8020
I-1
aI16
asVclosed
p8021
(lp8022
I-1
aI23
asVfield
p8023
(lp8024
I-1
aI4
asVExxon
p8025
(lp8026
I-1
aI4
asVcorresponding
p8027
(lp8028
I-1
aI4
asVNECO
p8029
(lp8030
I-1
aI3
asVIncome
p8031
(lp8032
I-1
aI3
asV467
p8033
(lp8034
I-1
aI3
asVfarmer
p8035
(lp8036
I-1
aI3
asVal
p8037
(lp8038
I-1
aI10
asVBenson
p8039
(lp8040
I-1
aI3
asVFinanciere
p8041
(lp8042
I-1
aI3
asVexpenditure
p8043
(lp8044
I-1
aI11
asVdeep
p8045
(lp8046
I-1
aI6
asVgraphics
p8047
(lp8048
I-1
aI3
asVtangible
p8049
(lp8050
I-1
aI3
asVDeng
p8051
(lp8052
I-1
aI3
asVpresent
p8053
(lp8054
I-1
aI33
asVAnd
p8055
(lp8056
I-1
aI20
asVdivisions
p8057
(lp8058
I-1
aI3
asVdebtor
p8059
(lp8060
I-1
aI6
asVmain
p8061
(lp8062
I-1
aI21
asVForce
p8063
(lp8064
I-1
aI3
asVabandoned
p8065
(lp8066
I-1
aI3
asVunlike
p8067
(lp8068
I-1
aI3
asVvalue
p8069
(lp8070
I-1
aI54
asVGeneral
p8071
(lp8072
I-1
aI24
asVOECD
p8073
(lp8074
I-1
aI13
asVPLC
p8075
(lp8076
I-1
aI13
asVpending
p8077
(lp8078
I-1
aI5
asVowns
p8079
(lp8080
I-1
aI22
asVHong
p8081
(lp8082
I-1
aI22
asVBlockbuster
p8083
(lp8084
I-1
aI4
asVLotus
p8085
(lp8086
I-1
aI6
asVsupply
p8087
(lp8088
I-1
aI35
asVgroup
p8089
(lp8090
I-1
aI111
asVve
p8091
(lp8092
I-1
aI5
asVJacoby
p8093
(lp8094
I-1
aI3
asVShanghai
p8095
(lp8096
I-1
aI3
asVflight
p8097
(lp8098
I-1
aI6
asVsite
p8099
(lp8100
I-1
aI3
asVImperial
p8101
(lp8102
I-1
aI6
asVhardware
p8103
(lp8104
I-1
aI3
asVdraining
p8105
(lp8106
I-1
aI6
asVvs
p8107
(lp8108
I-1
aI179
asVKerin
p8109
(lp8110
I-1
aI4
asVoptimistic
p8111
(lp8112
I-1
aI9
asVdual
p8113
(lp8114
I-1
aI7
asVclaimed
p8115
(lp8116
I-1
aI3
asVpartner
p8117
(lp8118
I-1
aI3
asVYou
p8119
(lp8120
I-1
aI5
asVforeign
p8121
(lp8122
I-1
aI101
asVfinance
p8123
(lp8124
I-1
aI35
asVproductivity
p8125
(lp8126
I-1
aI10
asVbegan
p8127
(lp8128
I-1
aI15
asVMobil
p8129
(lp8130
I-1
aI11
asVadministration
p8131
(lp8132
I-1
aI28
asVSupermac
p8133
(lp8134
I-1
aI3
asVproceeds
p8135
(lp8136
I-1
aI22
asVBangkok
p8137
(lp8138
I-1
aI4
asVNestle
p8139
(lp8140
I-1
aI4
asVSorg
p8141
(lp8142
I-1
aI3
asVmolded
p8143
(lp8144
I-1
aI3
asVIV
p8145
(lp8146
I-1
aI5
asVflour
p8147
(lp8148
I-1
aI4
asVunderground
p8149
(lp8150
I-1
aI3
asVparty
p8151
(lp8152
I-1
aI12
asVnegotiate
p8153
(lp8154
I-1
aI10
asVdifficult
p8155
(lp8156
I-1
aI20
asVtighten
p8157
(lp8158
I-1
aI8
asVmaterial
p8159
(lp8160
I-1
aI3
asVPemex
p8161
(lp8162
I-1
aI4
asVANR
p8163
(lp8164
I-1
aI3
asVEurosterling
p8165
(lp8166
I-1
aI3
asVMedical
p8167
(lp8168
I-1
aI26
asVreporting
p8169
(lp8170
I-1
aI14
asVnationally
p8171
(lp8172
I-1
aI3
asVforecasts
p8173
(lp8174
I-1
aI10
asVAirport
p8175
(lp8176
I-1
aI5
asVissuance
p8177
(lp8178
I-1
aI3
asVNationale
p8179
(lp8180
I-1
aI5
asVcontribution
p8181
(lp8182
I-1
aI6
asVexpand
p8183
(lp8184
I-1
aI22
asVHouston
p8185
(lp8186
I-1
aI6
asVtransaction
p8187
(lp8188
I-1
aI26
asVdiscounted
p8189
(lp8190
I-1
aI3
asVcenter
p8191
(lp8192
I-1
aI6
asVfully
p8193
(lp8194
I-1
aI10
asVSenate
p8195
(lp8196
I-1
aI18
asV49
p8197
(lp8198
I-1
aI16
asVsyndicated
p8199
(lp8200
I-1
aI7
asVRiverin
p8201
(lp8202
I-1
aI3
asVMerrell
p8203
(lp8204
I-1
aI7
asVcommand
p8205
(lp8206
I-1
aI4
asV350
p8207
(lp8208
I-1
aI10
asVposition
p8209
(lp8210
I-1
aI27
asVdiversify
p8211
(lp8212
I-1
aI3
asVTotal
p8213
(lp8214
I-1
aI11
asVdrawing
p8215
(lp8216
I-1
aI4
asVShe
p8217
(lp8218
I-1
aI9
asVupgraded
p8219
(lp8220
I-1
aI3
asV45
p8221
(lp8222
I-1
aI27
asVnewest
p8223
(lp8224
I-1
aI3
asVrestructure
p8225
(lp8226
I-1
aI3
asVBB
p8227
(lp8228
I-1
aI4
asVPittston
p8229
(lp8230
I-1
aI7
asVincreasingly
p8231
(lp8232
I-1
aI10
asVoffensive
p8233
(lp8234
I-1
aI4
asVhands
p8235
(lp8236
I-1
aI8
asVdomestic
p8237
(lp8238
I-1
aI64
asVobtain
p8239
(lp8240
I-1
aI8
asVsources
p8241
(lp8242
I-1
aI109
asVSunday
p8243
(lp8244
I-1
aI14
asVunderlying
p8245
(lp8246
I-1
aI6
asVdistant
p8247
(lp8248
I-1
aI3
asVChairman
p8249
(lp8250
I-1
aI20
asVCamdessus
p8251
(lp8252
I-1
aI4
asVWrather
p8253
(lp8254
I-1
aI3
asVArgentine
p8255
(lp8256
I-1
aI7
asVBahrain
p8257
(lp8258
I-1
aI11
asVDAT
p8259
(lp8260
I-1
aI8
asVrapid
p8261
(lp8262
I-1
aI3
asVCedel
p8263
(lp8264
I-1
aI4
asV150
p8265
(lp8266
I-1
aI23
asVGMAC
p8267
(lp8268
I-1
aI4
asVCompany
p8269
(lp8270
I-1
aI13
asVheaded
p8271
(lp8272
I-1
aI3
asVdeposits
p8273
(lp8274
I-1
aI24
asVcapabilities
p8275
(lp8276
I-1
aI3
asVrebate
p8277
(lp8278
I-1
aI4
asVarrest
p8279
(lp8280
I-1
aI3
asVadd
p8281
(lp8282
I-1
aI12
asVbook
p8283
(lp8284
I-1
aI5
asVdevelopments
p8285
(lp8286
I-1
aI7
asVDespite
p8287
(lp8288
I-1
aI6
asVusage
p8289
(lp8290
I-1
aI12
asV5
p8291
(lp8292
I-1
aI298
asVenacted
p8293
(lp8294
I-1
aI3
asVwarrant
p8295
(lp8296
I-1
aI11
asVBy
p8297
(lp8298
I-1
aI7
asVJustice
p8299
(lp8300
I-1
aI3
asV286
p8301
(lp8302
I-1
aI3
asVresolved
p8303
(lp8304
I-1
aI4
asVkilo
p8305
(lp8306
I-1
aI7
asVincreased
p8307
(lp8308
I-1
aI42
asVprovisions
p8309
(lp8310
I-1
aI5
asVgovernment
p8311
(lp8312
I-1
aI212
asVchecking
p8313
(lp8314
I-1
aI6
asVCavendish
p8315
(lp8316
I-1
aI7
asVcrushed
p8317
(lp8318
I-1
aI3
asVShipping
p8319
(lp8320
I-1
aI3
asVfats
p8321
(lp8322
I-1
aI4
asVAmong
p8323
(lp8324
I-1
aI5
asVincreases
p8325
(lp8326
I-1
aI15
asV260
p8327
(lp8328
I-1
aI4
asVT
p8329
(lp8330
I-1
aI9
asVburden
p8331
(lp8332
I-1
aI4
asVpress
p8333
(lp8334
I-1
aI23
asVimmediately
p8335
(lp8336
I-1
aI16
asVloss
p8337
(lp8338
I-1
aI100
asVManufacturing
p8339
(lp8340
I-1
aI5
asVEngland
p8341
(lp8342
I-1
aI18
asVlike
p8343
(lp8344
I-1
aI20
asVexcluding
p8345
(lp8346
I-1
aI6
asVPharmaceuticals
p8347
(lp8348
I-1
aI7
asVDealing
p8349
(lp8350
I-1
aI3
asVWithin
p8351
(lp8352
I-1
aI5
asVadmitted
p8353
(lp8354
I-1
aI3
asVCheung
p8355
(lp8356
I-1
aI7
asVtraders
p8357
(lp8358
I-1
aI24
asVpayments
p8359
(lp8360
I-1
aI57
asVlose
p8361
(lp8362
I-1
aI7
asVPolish
p8363
(lp8364
I-1
aI3
asVworks
p8365
(lp8366
I-1
aI8
asVsoft
p8367
(lp8368
I-1
aI6
asVpage
p8369
(lp8370
I-1
aI3
asVBoard
p8371
(lp8372
I-1
aI23
asVshed
p8373
(lp8374
I-1
aI3
asVeased
p8375
(lp8376
I-1
aI5
asVeurobond
p8377
(lp8378
I-1
aI14
asV983
p8379
(lp8380
I-1
aI3
asVdifficulties
p8381
(lp8382
I-1
aI7
asVKidder
p8383
(lp8384
I-1
aI7
asVEEP
p8385
(lp8386
I-1
aI5
asVauthority
p8387
(lp8388
I-1
aI8
asV117
p8389
(lp8390
I-1
aI4
asVgrowth
p8391
(lp8392
I-1
aI98
asVexport
p8393
(lp8394
I-1
aI87
asV110
p8395
(lp8396
I-1
aI6
asVcommitments
p8397
(lp8398
I-1
aI5
asVrecommendation
p8399
(lp8400
I-1
aI7
asVcopra
p8401
(lp8402
I-1
aI5
asVhome
p8403
(lp8404
I-1
aI9
asVempire
p8405
(lp8406
I-1
aI3
asVBrodersen
p8407
(lp8408
I-1
aI3
asVsuspension
p8409
(lp8410
I-1
aI10
asVtransport
p8411
(lp8412
I-1
aI6
asVinvestor
p8413
(lp8414
I-1
aI11
asVCoffee
p8415
(lp8416
I-1
aI22
asVlead
p8417
(lp8418
I-1
aI40
asVSingapore
p8419
(lp8420
I-1
aI23
asVbroad
p8421
(lp8422
I-1
aI9
asVavoid
p8423
(lp8424
I-1
aI11
asVOSR
p8425
(lp8426
I-1
aI3
asVHowever
p8427
(lp8428
I-1
aI35
asVsalaries
p8429
(lp8430
I-1
aI4
asVPeople
p8431
(lp8432
I-1
aI3
asVdoes
p8433
(lp8434
I-1
aI38
asVsalaried
p8435
(lp8436
I-1
aI8
asVleader
p8437
(lp8438
I-1
aI14
asVindicated
p8439
(lp8440
I-1
aI16
asVschedule
p8441
(lp8442
I-1
aI9
asVBaker
p8443
(lp8444
I-1
aI32
asVOfficial
p8445
(lp8446
I-1
aI7
asVmonetary
p8447
(lp8448
I-1
aI6
asVexpansion
p8449
(lp8450
I-1
aI17
asVpressure
p8451
(lp8452
I-1
aI26
asVexpire
p8453
(lp8454
I-1
aI6
asVTimes
p8455
(lp8456
I-1
aI8
asVoffset
p8457
(lp8458
I-1
aI11
asVloans
p8459
(lp8460
I-1
aI44
asVMicrosoft
p8461
(lp8462
I-1
aI4
asVstage
p8463
(lp8464
I-1
aI5
asVpayout
p8465
(lp8466
I-1
aI4
asVactual
p8467
(lp8468
I-1
aI8
asVboards
p8469
(lp8470
I-1
aI3
asVDlrs
p8471
(lp8472
I-1
aI23
asVdebentures
p8473
(lp8474
I-1
aI29
asVprocessors
p8475
(lp8476
I-1
aI6
asVPte
p8477
(lp8478
I-1
aI3
asVPeabody
p8479
(lp8480
I-1
aI5
asVurged
p8481
(lp8482
I-1
aI6
asVsurge
p8483
(lp8484
I-1
aI8
asVcompatible
p8485
(lp8486
I-1
aI5
asVholdings
p8487
(lp8488
I-1
aI10
asVfear
p8489
(lp8490
I-1
aI4
asVcarrier
p8491
(lp8492
I-1
aI3
asVUK
p8493
(lp8494
I-1
aI3
asVBuick
p8495
(lp8496
I-1
aI3
asV160
p8497
(lp8498
I-1
aI6
asVJapan
p8499
(lp8500
I-1
aI81
asVconcession
p8501
(lp8502
I-1
aI10
asVprevailing
p8503
(lp8504
I-1
aI3
asVexecutives
p8505
(lp8506
I-1
aI3
asVequally
p8507
(lp8508
I-1
aI4
asVletters
p8509
(lp8510
I-1
aI4
asVpreviously
p8511
(lp8512
I-1
aI28
asVwarrants
p8513
(lp8514
I-1
aI25
asVcommitment
p8515
(lp8516
I-1
aI14
asVgetting
p8517
(lp8518
I-1
aI6
asVassess
p8519
(lp8520
I-1
aI3
asVIraqi
p8521
(lp8522
I-1
aI7
asVguard
p8523
(lp8524
I-1
aI3
asVLabour
p8525
(lp8526
I-1
aI11
asVregistration
p8527
(lp8528
I-1
aI7
asVroads
p8529
(lp8530
I-1
aI3
asVquiet
p8531
(lp8532
I-1
aI3
asVinitially
p8533
(lp8534
I-1
aI12
asVHenderson
p8535
(lp8536
I-1
aI10
asVutility
p8537
(lp8538
I-1
aI8
asV1986
p8539
(lp8540
I-1
aI266
asVterminated
p8541
(lp8542
I-1
aI3
asV1984
p8543
(lp8544
I-1
aI29
asV1985
p8545
(lp8546
I-1
aI165
asVaccused
p8547
(lp8548
I-1
aI4
asVadditional
p8549
(lp8550
I-1
aI24
asV1980
p8551
(lp8552
I-1
aI3
asVLawrence
p8553
(lp8554
I-1
aI4
asVtransfer
p8555
(lp8556
I-1
aI14
asVhousing
p8557
(lp8558
I-1
aI3
asVreduction
p8559
(lp8560
I-1
aI17
asV1988
p8561
(lp8562
I-1
aI51
asV1989
p8563
(lp8564
I-1
aI22
asVovertime
p8565
(lp8566
I-1
aI5
asVnegotiating
p8567
(lp8568
I-1
aI11
asVSouth
p8569
(lp8570
I-1
aI27
asVfrustration
p8571
(lp8572
I-1
aI3
asVbiggest
p8573
(lp8574
I-1
aI10
asVNovember
p8575
(lp8576
I-1
aI46
asVpretax
p8577
(lp8578
I-1
aI7
asVfails
p8579
(lp8580
I-1
aI4
asVbuilding
p8581
(lp8582
I-1
aI9
asVbuy
p8583
(lp8584
I-1
aI52
asVnorth
p8585
(lp8586
I-1
aI4
asVtriggered
p8587
(lp8588
I-1
aI3
asVfunds
p8589
(lp8590
I-1
aI41
asVNavistar
p8591
(lp8592
I-1
aI4
asV565
p8593
(lp8594
I-1
aI4
asVContract
p8595
(lp8596
I-1
aI3
asVdelivery
p8597
(lp8598
I-1
aI15
asVinsured
p8599
(lp8600
I-1
aI3
asVneutral
p8601
(lp8602
I-1
aI5
asVconstruction
p8603
(lp8604
I-1
aI25
asVgain
p8605
(lp8606
I-1
aI38
asVlarger
p8607
(lp8608
I-1
aI6
asVFollowing
p8609
(lp8610
I-1
aI4
asVDec
p8611
(lp8612
I-1
aI11
asVpartially
p8613
(lp8614
I-1
aI3
asVIndustrial
p8615
(lp8616
I-1
aI14
asV747
p8617
(lp8618
I-1
aI14
asVWall
p8619
(lp8620
I-1
aI20
asVBancorp
p8621
(lp8622
I-1
aI4
asVofficial
p8623
(lp8624
I-1
aI95
asVTed
p8625
(lp8626
I-1
aI3
asVsigned
p8627
(lp8628
I-1
aI40
asVInterbank
p8629
(lp8630
I-1
aI6
asVTex
p8631
(lp8632
I-1
aI7
asVplaced
p8633
(lp8634
I-1
aI9
asVBritain
p8635
(lp8636
I-1
aI19
asVbooks
p8637
(lp8638
I-1
aI4
asVlimit
p8639
(lp8640
I-1
aI11
asVruling
p8641
(lp8642
I-1
aI12
asV720
p8643
(lp8644
I-1
aI4
asVinvest
p8645
(lp8646
I-1
aI8
asVdistribution
p8647
(lp8648
I-1
aI29
asVPeladeau
p8649
(lp8650
I-1
aI14
asVminutes
p8651
(lp8652
I-1
aI4
asVdisplay
p8653
(lp8654
I-1
aI3
asV729
p8655
(lp8656
I-1
aI3
asVbearing
p8657
(lp8658
I-1
aI7
asVCIA
p8659
(lp8660
I-1
aI5
asVmines
p8661
(lp8662
I-1
aI7
asVaddress
p8663
(lp8664
I-1
aI9
asVWest
p8665
(lp8666
I-1
aI49
asVcontribute
p8667
(lp8668
I-1
aI5
asVslowing
p8669
(lp8670
I-1
aI3
asVperiods
p8671
(lp8672
I-1
aI3
asVpartly
p8673
(lp8674
I-1
aI8
asVreflecting
p8675
(lp8676
I-1
aI6
asVpit
p8677
(lp8678
I-1
aI4
asVColombian
p8679
(lp8680
I-1
aI3
asVdiplomat
p8681
(lp8682
I-1
aI3
asVcompared
p8683
(lp8684
I-1
aI60
asVrumors
p8685
(lp8686
I-1
aI9
asVGeneva
p8687
(lp8688
I-1
aI4
asVvariety
p8689
(lp8690
I-1
aI4
asV46
p8691
(lp8692
I-1
aI11
asVtrials
p8693
(lp8694
I-1
aI4
asV44
p8695
(lp8696
I-1
aI11
asVVice
p8697
(lp8698
I-1
aI5
asV42
p8699
(lp8700
I-1
aI16
asV43
p8701
(lp8702
I-1
aI10
asV40
p8703
(lp8704
I-1
aI43
asV41
p8705
(lp8706
I-1
aI15
asVDelivery
p8707
(lp8708
I-1
aI4
asVdrugs
p8709
(lp8710
I-1
aI3
asVstockpile
p8711
(lp8712
I-1
aI3
asVcompares
p8713
(lp8714
I-1
aI7
asVdetails
p8715
(lp8716
I-1
aI35
asVBesides
p8717
(lp8718
I-1
aI3
asVWilliam
p8719
(lp8720
I-1
aI13
asVJefferies
p8721
(lp8722
I-1
aI5
asVconcerning
p8723
(lp8724
I-1
aI3
asVFebruary
p8725
(lp8726
I-1
aI136
asVrespected
p8727
(lp8728
I-1
aI3
asVclass
p8729
(lp8730
I-1
aI5
asVultimately
p8731
(lp8732
I-1
aI3
asVstay
p8733
(lp8734
I-1
aI8
asVApril
p8735
(lp8736
I-1
aI110
asVchance
p8737
(lp8738
I-1
aI4
asVU
p8739
(lp8740
I-1
aI436
asVMorgan
p8741
(lp8742
I-1
aI7
asVAct
p8743
(lp8744
I-1
aI4
asVWheat
p8745
(lp8746
I-1
aI8
asVCD
p8747
(lp8748
I-1
aI3
asVdisclosure
p8749
(lp8750
I-1
aI5
asVvein
p8751
(lp8752
I-1
aI6
asVexposure
p8753
(lp8754
I-1
aI11
asVUnit
p8755
(lp8756
I-1
aI4
asVCorps
p8757
(lp8758
I-1
aI3
asVCo
p8759
(lp8760
I-1
aI166
asVfactors
p8761
(lp8762
I-1
aI10
asVsubscribe
p8763
(lp8764
I-1
aI4
asVrule
p8765
(lp8766
I-1
aI15
asV472
p8767
(lp8768
I-1
aI4
asVportion
p8769
(lp8770
I-1
aI16
asVpension
p8771
(lp8772
I-1
aI3
asVvolumes
p8773
(lp8774
I-1
aI3
asVSpanish
p8775
(lp8776
I-1
aI6
asVtonnes
p8777
(lp8778
I-1
aI163
asVRefined
p8779
(lp8780
I-1
aI3
asVIn
p8781
(lp8782
I-1
aI105
as.